 DttSP

 Timestamp is 5abb95a6 (Wed Mar 28 15:16:22 2018)

 Preferred load address is 0000000180000000

 Start         Length     Name                   Class
 0001:00000000 000287c0H .text$mn                CODE
 0001:000287c0 000000d2H .text$mn$00             CODE
 0001:00028892 00000084H .text$x                 CODE
 0002:00000000 00000300H .idata$5                DATA
 0002:00000300 00000020H .00cfg                  DATA
 0002:00000320 00000008H .CRT$XCA                DATA
 0002:00000328 00000008H .CRT$XCZ                DATA
 0002:00000330 00000008H .CRT$XIA                DATA
 0002:00000338 00000008H .CRT$XIZ                DATA
 0002:00000340 00000008H .CRT$XPA                DATA
 0002:00000348 00000008H .CRT$XPZ                DATA
 0002:00000350 00000008H .CRT$XTA                DATA
 0002:00000358 00000008H .CRT$XTZ                DATA
 0002:00000360 00000000H .gfids$y                DATA
 0002:00000360 00000d20H .rdata                  DATA
 0002:00001080 000002b0H .rdata$zzzdbg           DATA
 0002:00001330 00000008H .rtc$IAA                DATA
 0002:00001338 00000008H .rtc$IZZ                DATA
 0002:00001340 00000008H .rtc$TAA                DATA
 0002:00001348 00000008H .rtc$TZZ                DATA
 0002:00001350 000034e0H .xdata                  DATA
 0002:00004830 0000110cH .edata                  DATA
 0002:0000593c 00000104H .idata$2                DATA
 0002:00005a40 00000018H .idata$3                DATA
 0002:00005a58 00000300H .idata$4                DATA
 0002:00005d58 000006e0H .idata$6                DATA
 0003:00000000 00001360H .data                   DATA
 0003:00001360 00049d88H .bss                    DATA
 0004:00000000 000021fcH .pdata                  DATA
 0005:00000000 00001750H _RDATA                  DATA
 0006:00000000 00000060H .rsrc$01                DATA
 0006:00000060 00000180H .rsrc$02                DATA

  Address         Publics by Value              Rva+Base               Lib:Object

 0000:00000000       __guard_fids_count         0000000000000000     <absolute>
 0000:00000000       ___safe_se_handler_table   0000000000000000     <absolute>
 0000:00000000       __guard_longjmp_table      0000000000000000     <absolute>
 0000:00000000       ___safe_se_handler_count   0000000000000000     <absolute>
 0000:00000000       __guard_iat_table          0000000000000000     <absolute>
 0000:00000000       __hybrid_code_map          0000000000000000     <absolute>
 0000:00000000       __guard_iat_count          0000000000000000     <absolute>
 0000:00000000       __hybrid_code_map_count    0000000000000000     <absolute>
 0000:00000000       __guard_longjmp_count      0000000000000000     <absolute>
 0000:00000000       __guard_fids_table         0000000000000000     <absolute>
 0000:00000000       __hybrid_auxiliary_iat     0000000000000000     <absolute>
 0000:00000000       __enclave_config           0000000000000000     <absolute>
 0000:00000000       __dynamic_value_reloc_table 0000000000000000     <absolute>
 0000:00000100       __guard_flags              0000000000000100     <absolute>
 0000:00000000       __ImageBase                0000000180000000     <linker-defined>
 0001:00000000       isNaN                      0000000180001000 f i am_demod.obj
 0001:00000010       __local_stdio_printf_options 0000000180001010 f i banal.obj
 0001:00000020       _vfprintf_l                0000000180001020 f i banal.obj
 0001:00000070       fprintf                    0000000180001070 f i banal.obj
 0001:000000c0       _vsnprintf_l               00000001800010c0 f i banal.obj
 0001:00000120       _vsnprintf                 0000000180001120 f i banal.obj
 0001:00000190       _vsprintf_l                0000000180001190 f i banal.obj
 0001:000001f0       sprintf                    00000001800011f0 f i banal.obj
 0001:00000250       _snprintf                  0000000180001250 f i banal.obj
 0001:000002b0       gettimeofday               00000001800012b0 f i banal.obj
 0001:00000340       sqr                        0000000180001340 f i banal.obj
 0001:00000350       Cclamp                     0000000180001350 f i correctIQ.obj
 0001:000003bf       timeKillEvent              00000001800013bf f   winMM:WINMM.dll
 0001:000003c5       timeSetEvent               00000001800013c5 f   winMM:WINMM.dll
 0001:000003cb       fftwf_execute              00000001800013cb f   libfftw3f-3_x64:libfftw3f-3.dll
 0001:000003d1       fftwf_plan_dft_1d          00000001800013d1 f   libfftw3f-3_x64:libfftw3f-3.dll
 0001:000003d7       fftwf_destroy_plan         00000001800013d7 f   libfftw3f-3_x64:libfftw3f-3.dll
 0001:000003dd       fftwf_import_wisdom_from_string 00000001800013dd f   libfftw3f-3_x64:libfftw3f-3.dll
 0001:000003e3       sem_wait                   00000001800013e3 f   pthreadVC_x64:pthreadVC_x64.dll
 0001:000003e9       sem_post                   00000001800013e9 f   pthreadVC_x64:pthreadVC_x64.dll
 0001:000003ef       sem_destroy                00000001800013ef f   pthreadVC_x64:pthreadVC_x64.dll
 0001:000003f5       sem_init                   00000001800013f5 f   pthreadVC_x64:pthreadVC_x64.dll
 0001:000003fb       pthread_exit               00000001800013fb f   pthreadVC_x64:pthreadVC_x64.dll
 0001:00000401       GetSystemTimeAsFileTime    0000000180001401 f   kernel32:KERNEL32.dll
 0001:00000407       EnterCriticalSection       0000000180001407 f   kernel32:KERNEL32.dll
 0001:0000040d       InitializeCriticalSectionAndSpinCount 000000018000140d f   kernel32:KERNEL32.dll
 0001:00000413       LeaveCriticalSection       0000000180001413 f   kernel32:KERNEL32.dll
 0001:00000419       QueryPerformanceFrequency  0000000180001419 f   kernel32:KERNEL32.dll
 0001:0000041f       DeleteCriticalSection      000000018000141f f   kernel32:KERNEL32.dll
 0001:00000425       QueryPerformanceCounter    0000000180001425 f   kernel32:KERNEL32.dll
 0001:0000042b       GetCurrentThreadId         000000018000142b f   kernel32:KERNEL32.dll
 0001:00000431       Sleep                      0000000180001431 f   kernel32:KERNEL32.dll
 0001:00000450       __security_check_cookie    0000000180001450 f   MSVCRT:_amdsecgs_.obj
 0001:0000080c       _CRT_INIT                  000000018000180c f   MSVCRT:dll_dllmain.obj
 0001:00000814       _DllMainCRTStartup         0000000180001814 f   MSVCRT:dll_dllmain.obj
 0001:00000854       __raise_securityfailure    0000000180001854 f   MSVCRT:gs_report.obj
 0001:00000888       __report_gsfailure         0000000180001888 f   MSVCRT:gs_report.obj
 0001:0000095c       __report_rangecheckfailure 000000018000195c f   MSVCRT:gs_report.obj
 0001:00000970       __report_securityfailure   0000000180001970 f   MSVCRT:gs_report.obj
 0001:00000a0c       __report_securityfailureEx 0000000180001a0c f   MSVCRT:gs_report.obj
 0001:00000c6c       __security_init_cookie     0000000180001c6c f   MSVCRT:gs_support.obj
 0001:00000d1c       DllMain                    0000000180001d1c f   MSVCRT:dll_dllmain_stub.obj
 0001:00000d40       ?__scrt_initialize_type_info@@YAXXZ 0000000180001d40 f   MSVCRT:tncleanup.obj
 0001:00000d50       ?__scrt_uninitialize_type_info@@YAXXZ 0000000180001d50 f   MSVCRT:tncleanup.obj
 0001:00000d5c       __local_stdio_scanf_options 0000000180001d5c f i MSVCRT:default_local_stdio_options.obj
 0001:00000d64       __scrt_initialize_default_local_stdio_options 0000000180001d64 f   MSVCRT:default_local_stdio_options.obj
 0001:00000d80       ??$__crt_fast_decode_pointer@PEAP6AXXZ@@YAPEAP6AXXZQEAP6AXXZ@Z 0000000180001d80 f i MSVCRT:utility.obj
 0001:00000d98       ??$__crt_fast_encode_pointer@PEAP6AXXZ@@YAPEAP6AXXZQEAP6AXXZ@Z 0000000180001d98 f i MSVCRT:utility.obj
 0001:00000db8       ?__crt_rotate_pointer_value@@YA_K_KH@Z 0000000180001db8 f i MSVCRT:utility.obj
 0001:00000dc4       ?configure_argv@__scrt_narrow_argv_policy@@SAHXZ 0000000180001dc4 f i MSVCRT:utility.obj
 0001:00000e24       ?initialize_environment@__scrt_narrow_environment_policy@@SAHXZ 0000000180001e24 f i MSVCRT:utility.obj
 0001:00000e5c       NtCurrentTeb               0000000180001e5c f i MSVCRT:utility.obj
 0001:00000e68       __scrt_acquire_startup_lock 0000000180001e68 f   MSVCRT:utility.obj
 0001:00000ea4       __scrt_dllmain_after_initialize_c 0000000180001ea4 f   MSVCRT:utility.obj
 0001:00000ed8       __scrt_dllmain_before_initialize_c 0000000180001ed8 f   MSVCRT:utility.obj
 0001:00000ef0       __scrt_dllmain_crt_thread_attach 0000000180001ef0 f   MSVCRT:utility.obj
 0001:00000f18       __scrt_dllmain_crt_thread_detach 0000000180001f18 f   MSVCRT:utility.obj
 0001:00000f30       __scrt_dllmain_exception_filter 0000000180001f30 f   MSVCRT:utility.obj
 0001:00000f94       __scrt_dllmain_uninitialize_c 0000000180001f94 f   MSVCRT:utility.obj
 0001:00000fc4       __scrt_dllmain_uninitialize_critical 0000000180001fc4 f   MSVCRT:utility.obj
 0001:00000fd8       __scrt_initialize_crt      0000000180001fd8 f   MSVCRT:utility.obj
 0001:00001024       __scrt_initialize_onexit_tables 0000000180002024 f   MSVCRT:utility.obj
 0001:00001104       __scrt_is_nonwritable_in_current_image 0000000180002104 f   MSVCRT:utility.obj
 0001:000011a0       __scrt_release_startup_lock 00000001800021a0 f   MSVCRT:utility.obj
 0001:000011c4       __scrt_uninitialize_crt    00000001800021c4 f   MSVCRT:utility.obj
 0001:000011f0       _onexit                    00000001800021f0 f   MSVCRT:utility.obj
 0001:00001240       at_quick_exit              0000000180002240 f   MSVCRT:utility.obj
 0001:00001278       atexit                     0000000180002278 f   MSVCRT:utility.obj
 0001:00001290       __scrt_get_dyn_tls_init_callback 0000000180002290 f   MSVCRT:dyn_tls_init.obj
 0001:00001298       __crt_debugger_hook        0000000180002298 f   MSVCRT:utility_desktop.obj
 0001:000012a0       __scrt_fastfail            00000001800022a0 f   MSVCRT:utility_desktop.obj
 0001:000013ec       __scrt_get_show_window_mode 00000001800023ec f   MSVCRT:utility_desktop.obj
 0001:00001428       __scrt_initialize_winrt    0000000180002428 f   MSVCRT:utility_desktop.obj
 0001:0000142c       __scrt_is_managed_app      000000018000242c f   MSVCRT:utility_desktop.obj
 0001:00001480       __scrt_set_unhandled_exception_filter 0000000180002480 f   MSVCRT:utility_desktop.obj
 0001:00001490       __scrt_unhandled_exception_filter 0000000180002490 f   MSVCRT:utility_desktop.obj
 0001:000014c8       _RTC_Initialize            00000001800024c8 f   MSVCRT:_initsect_.obj
 0001:00001514       _RTC_Terminate             0000000180002514 f   MSVCRT:_initsect_.obj
 0001:00001560       _guard_check_icall         0000000180002560 f i MSVCRT:checkcfg.obj
 0001:00001568       __isa_available_init       0000000180002568 f   MSVCRT:_cpu_disp_.obj
 0001:00001724       _get_startup_argv_mode     0000000180002724 f   MSVCRT:argv_mode.obj
 0001:0000172c       __scrt_is_ucrt_dll_in_use  000000018000272c f   MSVCRT:ucrt_detection.obj
 0001:00001738       _guard_check_icall_nop     0000000180002738 f i MSVCRT:guard_support.obj
 0001:0000173c       ReadNoFence64              000000018000273c f i MSVCRT:guard_support.obj
 0001:00001740       ReadPointerNoFence         0000000180002740 f i MSVCRT:guard_support.obj
 0001:00001744       __guard_ss_common_verify_stub 0000000180002744 f i MSVCRT:guard_support.obj
 0001:00001748       _guard_icall_checks_enforced 0000000180002748 f i MSVCRT:guard_support.obj
 0001:00001760       _guard_rf_checks_enforced  0000000180002760 f i MSVCRT:guard_support.obj
 0001:00001780       __C_specific_handler       0000000180002780 f   vcruntime:VCRUNTIME140.dll
 0001:00001786       __std_type_info_destroy_list 0000000180002786 f   vcruntime:VCRUNTIME140.dll
 0001:0000178c       memset                     000000018000278c f   vcruntime:VCRUNTIME140.dll
 0001:00001792       exit                       0000000180002792 f   ucrt:api-ms-win-crt-runtime-l1-1-0.dll
 0001:00001798       _tzset                     0000000180002798 f   ucrt:api-ms-win-crt-time-l1-1-0.dll
 0001:0000179e       freopen                    000000018000279e f   ucrt:api-ms-win-crt-stdio-l1-1-0.dll
 0001:000017a4       fopen                      00000001800027a4 f   ucrt:api-ms-win-crt-stdio-l1-1-0.dll
 0001:000017aa       __acrt_iob_func            00000001800027aa f   ucrt:api-ms-win-crt-stdio-l1-1-0.dll
 0001:000017b0       __timezone                 00000001800027b0 f   ucrt:api-ms-win-crt-time-l1-1-0.dll
 0001:000017b6       __stdio_common_vfprintf    00000001800027b6 f   ucrt:api-ms-win-crt-stdio-l1-1-0.dll
 0001:000017bc       _stat64i32                 00000001800027bc f   ucrt:api-ms-win-crt-filesystem-l1-1-0.dll
 0001:000017c2       __daylight                 00000001800027c2 f   ucrt:api-ms-win-crt-time-l1-1-0.dll
 0001:000017c8       __stdio_common_vsprintf    00000001800027c8 f   ucrt:api-ms-win-crt-stdio-l1-1-0.dll
 0001:000017ce       _fstat64i32                00000001800027ce f   ucrt:api-ms-win-crt-filesystem-l1-1-0.dll
 0001:000017d4       getenv                     00000001800027d4 f   ucrt:api-ms-win-crt-environment-l1-1-0.dll
 0001:000017da       _aligned_free              00000001800027da f   ucrt:api-ms-win-crt-heap-l1-1-0.dll
 0001:000017e0       calloc                     00000001800027e0 f   ucrt:api-ms-win-crt-heap-l1-1-0.dll
 0001:000017e6       perror                     00000001800027e6 f   ucrt:api-ms-win-crt-runtime-l1-1-0.dll
 0001:000017ec       _aligned_malloc            00000001800027ec f   ucrt:api-ms-win-crt-heap-l1-1-0.dll
 0001:000017f2       free                       00000001800027f2 f   ucrt:api-ms-win-crt-heap-l1-1-0.dll
 0001:000017f8       fflush                     00000001800027f8 f   ucrt:api-ms-win-crt-stdio-l1-1-0.dll
 0001:000017fe       fclose                     00000001800027fe f   ucrt:api-ms-win-crt-stdio-l1-1-0.dll
 0001:00001804       fread                      0000000180002804 f   ucrt:api-ms-win-crt-stdio-l1-1-0.dll
 0001:0000180a       strtok                     000000018000280a f   ucrt:api-ms-win-crt-string-l1-1-0.dll
 0001:00001810       _initterm                  0000000180002810 f   ucrt:api-ms-win-crt-runtime-l1-1-0.dll
 0001:00001816       _initterm_e                0000000180002816 f   ucrt:api-ms-win-crt-runtime-l1-1-0.dll
 0001:0000181c       _seh_filter_dll            000000018000281c f   ucrt:api-ms-win-crt-runtime-l1-1-0.dll
 0001:00001822       _configure_narrow_argv     0000000180002822 f   ucrt:api-ms-win-crt-runtime-l1-1-0.dll
 0001:00001828       _initialize_narrow_environment 0000000180002828 f   ucrt:api-ms-win-crt-runtime-l1-1-0.dll
 0001:0000182e       _initialize_onexit_table   000000018000282e f   ucrt:api-ms-win-crt-runtime-l1-1-0.dll
 0001:00001834       _register_onexit_function  0000000180002834 f   ucrt:api-ms-win-crt-runtime-l1-1-0.dll
 0001:0000183a       _execute_onexit_table      000000018000283a f   ucrt:api-ms-win-crt-runtime-l1-1-0.dll
 0001:00001840       _crt_atexit                0000000180002840 f   ucrt:api-ms-win-crt-runtime-l1-1-0.dll
 0001:00001846       _crt_at_quick_exit         0000000180002846 f   ucrt:api-ms-win-crt-runtime-l1-1-0.dll
 0001:0000184c       _cexit                     000000018000284c f   ucrt:api-ms-win-crt-runtime-l1-1-0.dll
 0001:00001852       terminate                  0000000180002852 f   ucrt:api-ms-win-crt-runtime-l1-1-0.dll
 0001:00001858       _write                     0000000180002858 f   ucrt:api-ms-win-crt-stdio-l1-1-0.dll
 0001:00001858       write                      0000000180002858 f   ucrt:api-ms-win-crt-stdio-l1-1-0.dll
 0001:0000185e       RtlCaptureContext          000000018000285e f   kernel32:KERNEL32.dll
 0001:00001864       RtlLookupFunctionEntry     0000000180002864 f   kernel32:KERNEL32.dll
 0001:0000186a       RtlVirtualUnwind           000000018000286a f   kernel32:KERNEL32.dll
 0001:00001870       UnhandledExceptionFilter   0000000180002870 f   kernel32:KERNEL32.dll
 0001:00001876       SetUnhandledExceptionFilter 0000000180002876 f   kernel32:KERNEL32.dll
 0001:0000187c       GetCurrentProcess          000000018000287c f   kernel32:KERNEL32.dll
 0001:00001882       TerminateProcess           0000000180002882 f   kernel32:KERNEL32.dll
 0001:00001888       IsProcessorFeaturePresent  0000000180002888 f   kernel32:KERNEL32.dll
 0001:0000188e       GetCurrentProcessId        000000018000288e f   kernel32:KERNEL32.dll
 0001:00001894       DisableThreadLibraryCalls  0000000180002894 f   kernel32:KERNEL32.dll
 0001:0000189a       InitializeSListHead        000000018000289a f   kernel32:KERNEL32.dll
 0001:000018a0       IsDebuggerPresent          00000001800028a0 f   kernel32:KERNEL32.dll
 0001:000018a6       GetStartupInfoW            00000001800028a6 f   kernel32:KERNEL32.dll
 0001:000018ac       GetModuleHandleW           00000001800028ac f   kernel32:KERNEL32.dll
 0001:000018b4       __vcrt_initialize          00000001800028b4 f   MSVCRT:ucrt_stubs.obj
 0001:000018b4       __acrt_initialize          00000001800028b4 f   MSVCRT:ucrt_stubs.obj
 0001:000018b4       __scrt_stub_for_acrt_initialize 00000001800028b4 f   MSVCRT:ucrt_stubs.obj
 0001:000018b8       __vcrt_thread_attach       00000001800028b8 f   MSVCRT:ucrt_stubs.obj
 0001:000018b8       __scrt_stub_for_acrt_thread_attach 00000001800028b8 f   MSVCRT:ucrt_stubs.obj
 0001:000018b8       __acrt_thread_attach       00000001800028b8 f   MSVCRT:ucrt_stubs.obj
 0001:000018bc       __scrt_stub_for_acrt_thread_detach 00000001800028bc f   MSVCRT:ucrt_stubs.obj
 0001:000018bc       __vcrt_thread_detach       00000001800028bc f   MSVCRT:ucrt_stubs.obj
 0001:000018bc       __acrt_thread_detach       00000001800028bc f   MSVCRT:ucrt_stubs.obj
 0001:000018c0       __scrt_stub_for_acrt_uninitialize 00000001800028c0 f   MSVCRT:ucrt_stubs.obj
 0001:000018c0       __acrt_uninitialize        00000001800028c0 f   MSVCRT:ucrt_stubs.obj
 0001:000018c0       __vcrt_uninitialize        00000001800028c0 f   MSVCRT:ucrt_stubs.obj
 0001:000018c4       __acrt_uninitialize_critical 00000001800028c4 f   MSVCRT:ucrt_stubs.obj
 0001:000018c4       __vcrt_uninitialize_critical 00000001800028c4 f   MSVCRT:ucrt_stubs.obj
 0001:000018c4       __scrt_stub_for_acrt_uninitialize_critical 00000001800028c4 f   MSVCRT:ucrt_stubs.obj
 0001:000018c8       _is_c_termination_complete 00000001800028c8 f   MSVCRT:ucrt_stubs.obj
 0001:000018c8       __scrt_stub_for_is_c_termination_complete 00000001800028c8 f   MSVCRT:ucrt_stubs.obj
 0001:000018d0       delAMD                     00000001800028d0 f   am_demod.obj
 0001:00001950       newAMD                     0000000180002950 f   am_demod.obj
 0001:00001ae0       AMDemod                    0000000180002ae0 f   am_demod.obj
 0001:000020a0       least_common_mul           00000001800030a0 f   banal.obj
 0001:00002130       gcd                        0000000180003130 f   banal.obj
 0001:00002150       hash                       0000000180003150 f   banal.obj
 0001:00002180       find_rcfile                0000000180003180 f   banal.obj
 0001:00002250       status_message             0000000180003250 f   banal.obj
 0001:00002280       hinterp_vec                0000000180003280 f   banal.obj
 0001:00002370       since                      0000000180003370 f   banal.obj
 0001:00002470       fmt_tv                     0000000180003470 f   banal.obj
 0001:000024b0       sum_tv                     00000001800034b0 f   banal.obj
 0001:000024f0       diff_tv                    00000001800034f0 f   banal.obj
 0001:00002540       now_tv                     0000000180003540 f   banal.obj
 0001:000025d0       fdsize                     00000001800035d0 f   banal.obj
 0001:00002620       filesize                   0000000180003620 f   banal.obj
 0001:00002670       efreopen                   0000000180003670 f   banal.obj
 0001:000026d0       efopen                     00000001800036d0 f   banal.obj
 0001:00002730       in_blocks                  0000000180003730 f   banal.obj
 0001:00002780       nblock2                    0000000180003780 f   banal.obj
 0001:000027b0       npoof2                     00000001800037b0 f   banal.obj
 0001:000027d0       popcnt                     00000001800037d0 f   banal.obj
 0001:00002840       nilfunc                    0000000180003840 f   banal.obj
 0001:00002870       dump_CX                    0000000180003870 f   bufvec.obj
 0001:00002930       dump_IMAG                  0000000180003930 f   bufvec.obj
 0001:000029e0       dump_REAL                  00000001800039e0 f   bufvec.obj
 0001:00002a90       normalize_vec_COMPLEX      0000000180003a90 f   bufvec.obj
 0001:00002cc0       normalize_vec_REAL         0000000180003cc0 f   bufvec.obj
 0001:00002ea0       delRLB                     0000000180003ea0 f   bufvec.obj
 0001:00002ee0       newRLB                     0000000180003ee0 f   bufvec.obj
 0001:00002ff0       delvec_COMPLEX_16          0000000180003ff0 f   bufvec.obj
 0001:00003000       newvec_COMPLEX_16          0000000180004000 f   bufvec.obj
 0001:000030a0       delvec_COMPLEX             00000001800040a0 f   bufvec.obj
 0001:000030c0       newvec_COMPLEX             00000001800040c0 f   bufvec.obj
 0001:00003150       delvec_IMAG                0000000180004150 f   bufvec.obj
 0001:00003170       newvec_IMAG                0000000180004170 f   bufvec.obj
 0001:00003200       delvec_REAL                0000000180004200 f   bufvec.obj
 0001:00003220       newvec_REAL_16             0000000180004220 f   bufvec.obj
 0001:000032b0       newvec_REAL                00000001800042b0 f   bufvec.obj
 0001:00003340       safememreset               0000000180004340 f   bufvec.obj
 0001:00003360       safememcurrcount           0000000180004360 f   bufvec.obj
 0001:00003370       safealloc16                0000000180004370 f   bufvec.obj
 0001:00003480       safealloc                  0000000180004480 f   bufvec.obj
 0001:000034e0       delCXB                     00000001800044e0 f   bufvec.obj
 0001:00003520       safefree                   0000000180004520 f   bufvec.obj
 0001:00003540       newCXB                     0000000180004540 f   bufvec.obj
 0001:00003670       correctIQ                  0000000180004670 f   correctIQ.obj
 0001:00003b10       delCorrectIQ               0000000180004b10 f   correctIQ.obj
 0001:00003b70       newCorrectIQ               0000000180004b70 f   correctIQ.obj
 0001:00003f20       delCWToneGen               0000000180004f20 f   cwtones.obj
 0001:00003fc0       newCWToneGen               0000000180004fc0 f   cwtones.obj
 0001:00004100       setCWToneGenVals           0000000180005100 f   cwtones.obj
 0001:00004130       CWToneOff                  0000000180005130 f   cwtones.obj
 0001:00004140       CWToneOn                   0000000180005140 f   cwtones.obj
 0001:00004250       CWTone                     0000000180005250 f   cwtones.obj
 0001:00004500       CWComplexOSC               0000000180005500 f   cwtones.obj
 0001:00004af0       delDCBlocker               0000000180005af0 f   dcblock.obj
 0001:00004b50       newDCBlocker               0000000180005b50 f   dcblock.obj
 0001:00004c10       resetDCBlocker             0000000180005c10 f   dcblock.obj
 0001:00004c40       DCBlock                    0000000180005c40 f   dcblock.obj
 0001:000053e0       delDttSPAgc                00000001800063e0 f   dttspagc.obj
 0001:00005440       DttSPAgc                   0000000180006440 f   dttspagc.obj
 0001:00005770       DttSPAgc_flushbuf          0000000180006770 f   dttspagc.obj
 0001:00005790       newDttSPAgc                0000000180006790 f   dttspagc.obj
 0001:00005b90       newFIR_Bandstop_COMPLEX    0000000180006b90 f   filter.obj
 0001:00006090       newFIR_Bandstop_REAL       0000000180007090 f   filter.obj
 0001:00006560       newFIR_Hilbert_COMPLEX     0000000180007560 f   filter.obj
 0001:00006810       newFIR_Hilbert_REAL        0000000180007810 f   filter.obj
 0001:00006aa0       newFIR_Highpass_COMPLEX    0000000180007aa0 f   filter.obj
 0001:00006e20       newFIR_Highpass_REAL       0000000180007e20 f   filter.obj
 0001:00007230       newFIR_Bandpass_COMPLEX    0000000180008230 f   filter.obj
 0001:00007500       newFIR_Bandpass_REAL       0000000180008500 f   filter.obj
 0001:000077a0       newFIR_Lowpass_COMPLEX     00000001800087a0 f   filter.obj
 0001:000079d0       newFIR_Lowpass_REAL        00000001800089d0 f   filter.obj
 0001:00007bf0       delFIR_COMPLEX             0000000180008bf0 f   filter.obj
 0001:00007c20       delFIR_REAL                0000000180008c20 f   filter.obj
 0001:00007c50       newFIR_COMPLEX             0000000180008c50 f   filter.obj
 0001:00007d60       newFIR_REAL                0000000180008d60 f   filter.obj
 0001:00007ef0       delFMD                     0000000180008ef0 f   fm_demod.obj
 0001:00008090       FMDreload                  0000000180009090 f   fm_demod.obj
 0001:00008120       newFMD                     0000000180009120 f   fm_demod.obj
 0001:00008240       FMDemod                    0000000180009240 f   fm_demod.obj
 0001:00008690       ProcessPhaseError          0000000180009690 f   fm_stereo_decoder.obj
 0001:00008730       ProcessPll                 0000000180009730 f   fm_stereo_decoder.obj
 0001:00008870       newStereoPll               0000000180009870 f   fm_stereo_decoder.obj
 0001:00008a00       FMStereoDetected           0000000180009a00 f   fm_stereo_decoder.obj
 0001:00008aa0       delStereDecoder            0000000180009aa0 f   fm_stereo_decoder.obj
 0001:00008bd0       ProcessStereo              0000000180009bd0 f   fm_stereo_decoder.obj
 0001:000094b0       newStereoDecoder           000000018000a4b0 f   fm_stereo_decoder.obj
 0001:00009a80       graphiceq                  000000018000aa80 f   graphiceq.obj
 0001:00009e50       delEQ                      000000018000ae50 f   graphiceq.obj
 0001:00009f20       new_EQ                     000000018000af20 f   graphiceq.obj
 0001:0000a180       hilsim_transform           000000018000b180 f   hilbert.obj
 0001:0000a2e0       hilbert_transform          000000018000b2e0 f   hilbert.obj
 0001:0000a540       delHilsim                  000000018000b540 f   hilbert.obj
 0001:0000a5c0       delHilbert                 000000018000b5c0 f   hilbert.obj
 0001:0000a670       newHilbertsim              000000018000b670 f   hilbert.obj
 0001:0000a760       newHilbert                 000000018000b760 f   hilbert.obj
 0001:0000adc0       IirFilterInit              000000018000bdc0 f   IirFilter.obj
 0001:0000af40       ProcessIirFilter           000000018000bf40 f   IirFilter.obj
 0001:0000aff0       ISOband_get_high           000000018000bff0 f   isoband.obj
 0001:0000b050       ISOband_get_low            000000018000c050 f   isoband.obj
 0001:0000b0b0       ISOband_get_exact          000000018000c0b0 f   isoband.obj
 0001:0000b110       ISOband_get_nominal        000000018000c110 f   isoband.obj
 0001:0000b1c0       TimerRead                  000000018000c1c0 f   keyd.obj
 0001:0000b220       SetKeyerSampleRate         000000018000c220 f   keyd.obj
 0001:0000b2c0       SetKeyerResetSize          000000018000c2c0 f   keyd.obj
 0001:0000b2e0       PollTimerRelease           000000018000c2e0 f   keyd.obj
 0001:0000b300       PollTimerWait              000000018000c300 f   keyd.obj
 0001:0000b320       KeyerStartedRelease        000000018000c320 f   keyd.obj
 0001:0000b340       KeyerStartedWait           000000018000c340 f   keyd.obj
 0001:0000b360       KeyerClockFireRelease      000000018000c360 f   keyd.obj
 0001:0000b380       KeyerClockFireWait         000000018000c380 f   keyd.obj
 0001:0000b3a0       DeleteKeyer                000000018000c3a0 f   keyd.obj
 0001:0000b550       KeyerRunning               000000018000c550 f   keyd.obj
 0001:0000b570       StopKeyer                  000000018000c570 f   keyd.obj
 0001:0000b5c0       StartKeyer                 000000018000c5c0 f   keyd.obj
 0001:0000b650       CWRingRestart              000000018000c650 f   keyd.obj
 0001:0000b670       DestroyCriticalSection     000000018000c670 f   keyd.obj
 0001:0000b690       NewCriticalSection         000000018000c690 f   keyd.obj
 0001:0000b700       NewKeyer                   000000018000c700 f   keyd.obj
 0001:0000ba00       SetKeyerRevPdl             000000018000ca00 f   keyd.obj
 0001:0000ba40       SetKeyerDeBounce           000000018000ca40 f   keyd.obj
 0001:0000ba80       SetKeyerMode               000000018000ca80 f   keyd.obj
 0001:0000bb10       SetKeyerFall               000000018000cb10 f   keyd.obj
 0001:0000bbb0       SetKeyerRise               000000018000cbb0 f   keyd.obj
 0001:0000bc50       SetKeyerGain               000000018000cc50 f   keyd.obj
 0001:0000bd00       SetKeyerHarmonicRemove     000000018000cd00 f   keyd.obj
 0001:0000bd70       SetMonitorFreq             000000018000cd70 f   keyd.obj
 0001:0000bdf0       SetKeyerFreq               000000018000cdf0 f   keyd.obj
 0001:0000be70       SetKeyerIambic             000000018000ce70 f   keyd.obj
 0001:0000bed0       SetKeyerWeight             000000018000ced0 f   keyd.obj
 0001:0000bf10       SetKeyerSpeed              000000018000cf10 f   keyd.obj
 0001:0000bf60       SetKeyerBug                000000018000cf60 f   keyd.obj
 0001:0000bfc0       KeyerPlaying               000000018000cfc0 f   keyd.obj
 0001:0000bfd0       key_thread_process         000000018000cfd0 f   keyd.obj
 0001:0000c0b0       SetWhichKey                000000018000d0b0 f   keyd.obj
 0001:0000c0e0       read_key                   000000018000d0e0 f   keyd.obj
 0001:0000c140       monitor_thread_keyd        000000018000d140 f   keyd.obj
 0001:0000c1c0       sound_thread_keyd          000000018000d1c0 f   keyd.obj
 0001:0000c3b0       timer_callback             000000018000d3b0 f   keyd.obj
 0001:0000c3d0       send_monitor_silence       000000018000d3d0 f   keyd.obj
 0001:0000c570       send_silence               000000018000d570 f   keyd.obj
 0001:0000c710       send_monitor_tone          000000018000d710 f   keyd.obj
 0001:0000c8e0       send_tone                  000000018000d8e0 f   keyd.obj
 0001:0000c9c0       CWtoneExchange             000000018000d9c0 f   keyd.obj
 0001:0000cac0       CWMonitorExchange          000000018000dac0 f   keyd.obj
 0001:0000cbc0       klogic                     000000018000dbc0 f   keyer.obj
 0001:0000ceb0       newKeyerLogic              000000018000deb0 f   keyer.obj
 0001:0000cf20       delKeyerState              000000018000df20 f   keyer.obj
 0001:0000cf40       newKeyerState              000000018000df40 f   keyer.obj
 0001:0000cfb0       delKeyerLogic              000000018000dfb0 f   keyer.obj
 0001:0000cfd0       read_iambic_key            000000018000dfd0 f   keyerio.obj
 0001:0000d140       read_straight_key          000000018000e140 f   keyerio.obj
 0001:0000d2a0       blms_adapt                 000000018000e2a0 f   lmadf.obj
 0001:0000e250       new_blms                   000000018000f250 f   lmadf.obj
 0001:0000e770       del_blms                   000000018000f770 f   lmadf.obj
 0001:0000e860       lmsr_adapt                 000000018000f860 f   lmadf.obj
 0001:0000ece0       del_lmsr                   000000018000fce0 f   lmadf.obj
 0001:0000ed50       new_lmsr                   000000018000fd50 f   lmadf.obj
 0001:0000f080       SDROMnoiseblanker          0000000180010080 f   noiseblanker.obj
 0001:0000f1f0       noiseblanker               00000001800101f0 f   noiseblanker.obj
 0001:0000f340       del_nb                     0000000180010340 f   noiseblanker.obj
 0001:0000f360       new_noiseblanker           0000000180010360 f   noiseblanker.obj
 0001:0000f4e0       RealOSC                    00000001800104e0 f   oscillator.obj
 0001:0000f5f0       ComplexOSC                 00000001800105f0 f   oscillator.obj
 0001:0000f690       newOSC                     0000000180010690 f   oscillator.obj
 0001:0000f850       delOSC                     0000000180010850 f   oscillator.obj
 0001:0000f8a0       FiltOvSv_initsize          00000001800108a0 f   ovsv.obj
 0001:0000f8b0       FiltOvSv_initpoint         00000001800108b0 f   ovsv.obj
 0001:0000f8d0       reset_OvSv                 00000001800108d0 f   ovsv.obj
 0001:0000f910       filter_CTCSS               0000000180010910 f   ovsv.obj
 0001:0000fb60       filter_OvSv                0000000180010b60 f   ovsv.obj
 0001:0000fd60       FiltOvSv_storesize         0000000180010d60 f   ovsv.obj
 0001:0000fd70       FiltOvSv_fetchsize         0000000180010d70 f   ovsv.obj
 0001:0000fd80       delFiltOvSv                0000000180010d80 f   ovsv.obj
 0001:0000fde0       FiltOvSv_fetchpoint        0000000180010de0 f   ovsv.obj
 0001:0000fe00       FiltOvSv_storepoint        0000000180010e00 f   ovsv.obj
 0001:0000fe10       newFiltOvSv                0000000180010e10 f   ovsv.obj
 0001:000102b0       PolyPhaseFIR               00000001800112b0 f   resample.obj
 0001:00010440       delPolyPhaseFIR            0000000180011440 f   resample.obj
 0001:000104a0       newPolyPhaseFIR            00000001800114a0 f   resample.obj
 0001:00010690       PolyPhaseFIRF              0000000180011690 f   resampleF.obj
 0001:000107e0       delPolyPhaseFIRF           00000001800117e0 f   resampleF.obj
 0001:00010840       newPolyPhaseFIRF           0000000180011840 f   resampleF.obj
 0001:000109b0       ringb_get_write_vector     00000001800119b0 f   ringb.obj
 0001:00010aa0       ringb_get_read_vector      0000000180011aa0 f   ringb.obj
 0001:00010b70       ringb_float_write_advance  0000000180011b70 f   ringb.obj
 0001:00010b90       ringb_float_read_advance   0000000180011b90 f   ringb.obj
 0001:00010bb0       ringb_write_advance        0000000180011bb0 f   ringb.obj
 0001:00010bd0       ringb_read_advance         0000000180011bd0 f   ringb.obj
 0001:00010bf0       ringb_write                0000000180011bf0 f   ringb.obj
 0001:00010d20       ringb_peek                 0000000180011d20 f   ringb.obj
 0001:00010e50       ringb_read                 0000000180011e50 f   ringb.obj
 0001:00010f70       ringb_float_write_space    0000000180011f70 f   ringb.obj
 0001:00010fb0       ringb_write_space          0000000180011fb0 f   ringb.obj
 0001:00010ff0       ringb_float_read_space     0000000180011ff0 f   ringb.obj
 0001:00011020       ringb_read_space           0000000180012020 f   ringb.obj
 0001:00011050       ringb_restart              0000000180012050 f   ringb.obj
 0001:000111b0       ringb_float_clear          00000001800121b0 f   ringb.obj
 0001:00011320       ringb_clear                0000000180012320 f   ringb.obj
 0001:00011470       ringb_float_reset          0000000180012470 f   ringb.obj
 0001:00011490       ringb_reset                0000000180012490 f   ringb.obj
 0001:000114b0       ringb_free                 00000001800124b0 f   ringb.obj
 0001:000114e0       ringb_create_usemem        00000001800124e0 f   ringb.obj
 0001:00011510       ringb_create               0000000180012510 f   ringb.obj
 0001:00011620       ringb_float_free           0000000180012620 f   ringb.obj
 0001:00011650       ringb_float_create         0000000180012650 f   ringb.obj
 0001:00011760       ringb_float_write          0000000180012760 f   ringb.obj
 0001:000118a0       ringb_float_restart        00000001800128a0 f   ringb.obj
 0001:000118c0       ringb_float_read           00000001800128c0 f   ringb.obj
 0001:000119f0       process_samples            00000001800129f0 f   sdr.obj
 0001:000164b0       destroy_workspace          00000001800174b0 f   sdr.obj
 0001:00016f80       setup_workspace            0000000180017f80 f   sdr.obj
 0001:00018660       reset_counters             0000000180019660 f   sdr.obj
 0001:000186d0       reset_spectrum             00000001800196d0 f   sdr.obj
 0001:00018810       reset_meters               0000000180019810 f   sdr.obj
 0001:00018a70       compute_spectrum           0000000180019a70 f   spectrum.obj
 0001:00018e60       compute_complex_spectrum   0000000180019e60 f   spectrum.obj
 0001:00018ee0       snap_scope                 0000000180019ee0 f   spectrum.obj
 0001:00018f50       snap_spectrum              0000000180019f50 f   spectrum.obj
 0001:00019420       init_spectrum              000000018001a420 f   spectrum.obj
 0001:00019790       reinit_spectrum            000000018001a790 f   spectrum.obj
 0001:00019800       finish_spectrum            000000018001a800 f   spectrum.obj
 0001:00019970       delSpeechProc              000000018001a970 f   speechproc.obj
 0001:000199f0       SpeechProcessor            000000018001a9f0 f   speechproc.obj
 0001:00019c00       newSpeechProc              000000018001ac00 f   speechproc.obj
 0001:00019d40       split                      000000018001ad40 f   splitfields.obj
 0001:00019dd0       spliton                    000000018001add0 f   splitfields.obj
 0001:00019e60       splitonto                  000000018001ae60 f   splitfields.obj
 0001:00019ee0       NF                         000000018001aee0 f   splitfields.obj
 0001:00019ef0       Fptr                       000000018001aef0 f   splitfields.obj
 0001:00019f00       F                          000000018001af00 f   splitfields.obj
 0001:00019f10       delSPLIT                   000000018001af10 f   splitfields.obj
 0001:00019f30       newSPLIT                   000000018001af30 f   splitfields.obj
 0001:00019fa0       setSpotToneGenVals         000000018001afa0 f   spottone.obj
 0001:00019fd0       SpotToneOff                000000018001afd0 f   spottone.obj
 0001:00019fe0       SpotToneOn                 000000018001afe0 f   spottone.obj
 0001:0001a110       SpotTone                   000000018001b110 f   spottone.obj
 0001:0001a2b0       delSpotToneGen             000000018001b2b0 f   spottone.obj
 0001:0001a350       newSpotToneGen             000000018001b350 f   spottone.obj
 0001:0001a470       EnableCTCSS                000000018001b470 f   update.obj
 0001:0001a4e0       SetCTCSSOscAmplitude       000000018001b4e0 f   update.obj
 0001:0001a560       SetCTCSSOscFreq            000000018001b560 f   update.obj
 0001:0001a630       SetDiversityGain           000000018001b630 f   update.obj
 0001:0001a670       SetDiversityScalar         000000018001b670 f   update.obj
 0001:0001a6d0       SetDiversity               000000018001b6d0 f   update.obj
 0001:0001a720       SetRXPan                   000000018001b720 f   update.obj
 0001:0001a830       SetSubRXSt                 000000018001b830 f   update.obj
 0001:0001a980       EnableResamplerF           000000018001b980 f   update.obj
 0001:0001aa00       SetResamplerF              000000018001ba00 f   update.obj
 0001:0001aa40       DelPolyPhaseFIRF           000000018001ba40 f   update.obj
 0001:0001aaa0       DoResamplerF               000000018001baa0 f   update.obj
 0001:0001aae0       NewResamplerF_LimeSDR      000000018001bae0 f   update.obj
 0001:0001ab20       NewResamplerF              000000018001bb20 f   update.obj
 0001:0001ab60       DelPolyPhaseFIR            000000018001bb60 f   update.obj
 0001:0001abc0       DoResampler                000000018001bbc0 f   update.obj
 0001:0001ac00       NewResampler               000000018001bc00 f   update.obj
 0001:0001ac40       CalculateTXMeter           000000018001bc40 f   update.obj
 0001:0001ad70       CalculateRXMeter           000000018001bd70 f   update.obj
 0001:0001ae30       SetRingBufferOffset        000000018001be30 f   update.obj
 0001:0001aea0       Process_Scope              000000018001bea0 f   update.obj
 0001:0001b040       Process_Phase              000000018001c040 f   update.obj
 0001:0001b250       Process_Panadapter         000000018001c250 f   update.obj
 0001:0001b320       Process_Spectrum           000000018001c320 f   update.obj
 0001:0001b3c0       Process_ComplexSpectrum    000000018001c3c0 f   update.obj
 0001:0001b4c0       SetTXAGCCompression        000000018001c4c0 f   update.obj
 0001:0001b4d0       SetAudioSize               000000018001c4d0 f   update.obj
 0001:0001b5f0       SetDSPBuflen               000000018001c5f0 f   update.obj
 0001:0001b7b0       SetSPEClen                 000000018001c7b0 f   update.obj
 0001:0001b7c0       FlushAllBufs               000000018001c7c0 f   update.obj
 0001:0001b9e0       SetTRX                     000000018001c9e0 f   update.obj
 0001:0001ba60       SetSquelchState            000000018001ca60 f   update.obj
 0001:0001bae0       SetSquelchVal              000000018001cae0 f   update.obj
 0001:0001bb60       SetTXAGCFFCompression      000000018001cb60 f   update.obj
 0001:0001bc30       SetTXAGCFF                 000000018001cc30 f   update.obj
 0001:0001bca0       SetGrphRXEQcmd             000000018001cca0 f   update.obj
 0001:0001bd20       SetGrphRXEQ10              000000018001cd20 f   update.obj
 0001:0001c700       SetGrphRXEQ                000000018001d700 f   update.obj
 0001:0001d740       SetNotch160                000000018001e740 f   update.obj
 0001:0001d750       SetRXFilterMode            000000018001e750 f   update.obj
 0001:0001d7d0       SetGrphTXEQcmd             000000018001e7d0 f   update.obj
 0001:0001d840       SetGrphTXEQ10              000000018001e840 f   update.obj
 0001:0001e230       SetGrphTXEQ                000000018001f230 f   update.obj
 0001:0001f270       SetSpectrumPolyphase       0000000180020270 f   update.obj
 0001:0001f4e0       SetWindow                  00000001800204e0 f   update.obj
 0001:0001f590       SetPWSmode                 0000000180020590 f   update.obj
 0001:0001f680       SetCorrectTXIQW            0000000180020680 f   update.obj
 0001:0001f720       SetCorrectTXIQMu           0000000180020720 f   update.obj
 0001:0001f7a0       SetCorrectTXIQPhase        00000001800207a0 f   update.obj
 0001:0001f830       SetCorrectTXIQGain         0000000180020830 f   update.obj
 0001:0001f8c0       SetCorrectTXIQ             00000001800208c0 f   update.obj
 0001:0001f980       SetCorrectRXIQwImag        0000000180020980 f   update.obj
 0001:0001fa20       SetCorrectRXIQwReal        0000000180020a20 f   update.obj
 0001:0001fac0       GetCorrectRXIQw            0000000180020ac0 f   update.obj
 0001:0001fb70       SetCorrectRXIQw            0000000180020b70 f   update.obj
 0001:0001fc60       GetCorrectRXIQMu           0000000180020c60 f   update.obj
 0001:0001fc90       SetCorrectRXIQMu           0000000180020c90 f   update.obj
 0001:0001fd20       SetCorrectIQEnable         0000000180020d20 f   update.obj
 0001:0001fd60       SetIQFixed                 0000000180020d60 f   update.obj
 0001:0001fe10       SetIQSuspended             0000000180020e10 f   update.obj
 0001:0001fe50       ResetRingBuffer            0000000180020e50 f   update.obj
 0001:0001fe90       SetCorrectIQPhase          0000000180020e90 f   update.obj
 0001:0001ff30       SetCorrectIQGain           0000000180020f30 f   update.obj
 0001:0001ffd0       SetCorrectIQ               0000000180020fd0 f   update.obj
 0001:000200a0       GetSAMFreq                 00000001800210a0 f   update.obj
 0001:00020130       SetSAMPLLvals              0000000180021130 f   update.obj
 0001:000201d0       GetSAMPLLvals              00000001800211d0 f   update.obj
 0001:00020270       SetRXAGCTop                0000000180021270 f   update.obj
 0001:00020340       SetFixedAGC                0000000180021340 f   update.obj
 0001:000203f0       SetTXLevelerTop            00000001800213f0 f   update.obj
 0001:000204a0       SetTXLevelerHang           00000001800214a0 f   update.obj
 0001:00020530       SetTXLevelerDecay          0000000180021530 f   update.obj
 0001:00020620       SetTXLevelerAttack         0000000180021620 f   update.obj
 0001:00020790       SetTXLevelerSt             0000000180021790 f   update.obj
 0001:00020800       SetTXALCHang               0000000180021800 f   update.obj
 0001:000208a0       SetTXALCBot                00000001800218a0 f   update.obj
 0001:00020940       SetTXALCDecay              0000000180021940 f   update.obj
 0001:00020a30       SetTXAMCarrierLevel        0000000180021a30 f   update.obj
 0001:00020ab0       SetTXALCAttack             0000000180021ab0 f   update.obj
 0001:00020c20       SetRXAGCHangThreshold      0000000180021c20 f   update.obj
 0001:00020cd0       SetRXAGCSlope              0000000180021cd0 f   update.obj
 0001:00020d90       SetRXAGCHang               0000000180021d90 f   update.obj
 0001:00020e40       SetRXAGCDecay              0000000180021e40 f   update.obj
 0001:00020f50       SetRXAGCAttack             0000000180021f50 f   update.obj
 0001:000210d0       SetRXAGC                   00000001800220d0 f   update.obj
 0001:00021420       SetBIN                     0000000180022420 f   update.obj
 0001:000214a0       SetSDROMvals               00000001800224a0 f   update.obj
 0001:00021530       SetSDROM                   0000000180022530 f   update.obj
 0001:000215b0       SetNBvals                  00000001800225b0 f   update.obj
 0001:00021640       SetNB                      0000000180022640 f   update.obj
 0001:000216c0       SetANFvals                 00000001800226c0 f   update.obj
 0001:000217b0       SetANF                     00000001800227b0 f   update.obj
 0001:00021850       SetTXSquelchAtt            0000000180022850 f   update.obj
 0001:000218c0       SetTXSquelchVal            00000001800228c0 f   update.obj
 0001:00021930       SetTXSquelchSt             0000000180022930 f   update.obj
 0001:000219a0       SetTXCompand               00000001800229a0 f   update.obj
 0001:00021a20       SetTXCompandSt             0000000180022a20 f   update.obj
 0001:00021a90       SetNRvals                  0000000180022a90 f   update.obj
 0001:00021b80       SetNR                      0000000180022b80 f   update.obj
 0001:00021c20       SetSampleRate              0000000180022c20 f   update.obj
 0001:00021e50       SetTXOsc                   0000000180022e50 f   update.obj
 0001:00021f20       SetRXOsc                   0000000180022f20 f   update.obj
 0001:00022000       SetOscPhase                0000000180023000 f   update.obj
 0001:000220b0       SetRXOscPhase              00000001800230b0 f   update.obj
 0001:00022110       SetRXOutputGain            0000000180023110 f   update.obj
 0001:000221a0       Release_Update             00000001800231a0 f   update.obj
 0001:000221d0       SetRXLowPassFilter         00000001800231d0 f   update.obj
 0001:00022450       SetRXHighPassFilter        0000000180023450 f   update.obj
 0001:000226d0       SetRXFilter                00000001800236d0 f   update.obj
 0001:00022990       FMenableStereo             0000000180023990 f   update.obj
 0001:00022a10       FMreload                   0000000180023a10 f   update.obj
 0001:00022ae0       SetTXFilter                0000000180023ae0 f   update.obj
 0001:00022d90       SetTXFMDeviation           0000000180023d90 f   update.obj
 0001:00022e30       SetTXDCBlock               0000000180023e30 f   update.obj
 0001:00022ea0       SetRXDCBlockGain           0000000180023ea0 f   update.obj
 0001:00022f30       SetRXDCBlock               0000000180023f30 f   update.obj
 0001:00022fc0       AudioReset                 0000000180023fc0 f   update.obj
 0001:00022fd0       SetTXMode                  0000000180023fd0 f   update.obj
 0001:00023070       SetMode                    0000000180024070 f   update.obj
 0001:00023140       SetThreadProcessingMode    0000000180024140 f   update.obj
 0001:00023270       SetThreadCom               0000000180024270 f   update.obj
 0001:000232c0       SetThreadNo                00000001800242c0 f   update.obj
 0001:00023320       Destroy_SDR                0000000180024320 f   update.obj
 0001:00023480       Setup_SDR                  0000000180024480 f   update.obj
 0001:00023560       makewindow                 0000000180024560 f   window.obj
 0001:00024580       process_TX_samples_thread  0000000180025580 f   winmain.obj
 0001:000246c0       process_samples_thread     00000001800256c0 f   winmain.obj
 0001:00024900       Audio_Callback2            0000000180025900 f   winmain.obj
 0001:00024e70       Audio_Output_Callback      0000000180025e70 f   winmain.obj
 0001:00024fd0       Audio_Input_Callback       0000000180025fd0 f   winmain.obj
 0001:00025100       Audio_Callback             0000000180026100 f   winmain.obj
 0001:00025b90       reset_for_buflen           0000000180026b90 f   winmain.obj
 0001:00025d20       setup                      0000000180026d20 f   winmain.obj
 0001:00026370       closeup                    0000000180027370 f   winmain.obj
 0001:000264d0       reset_for_samplerate       00000001800274d0 f   winmain.obj
 0001:00026790       WSCReset                   0000000180027790 f   wscompand.obj
 0001:000268b0       delWSCompander             00000001800278b0 f   wscompand.obj
 0001:00026920       newWSCompander             0000000180027920 f   wscompand.obj
 0001:00026a60       WSCompand                  0000000180027a60 f   wscompand.obj
 0001:00026e40       fast_cos                   0000000180027e40 f   fastrig1.obj
 0001:00026ec0       fast_sin                   0000000180027ec0 f   fastrig1.obj
 0001:00026f40       InitSPEEDTRIG              0000000180027f40 f   fastrig1.obj
 0001:000270d0       phasemod                   00000001800280d0 f   fastrig1.obj
 0001:00027130       fast_atan2                 0000000180028130 f   fastrig1.obj
 0001:000272c0       __GSHandlerCheck           00000001800282c0 f   MSVCRT:_gshandler_.obj
 0001:000272e0       __GSHandlerCheckCommon     00000001800282e0 f   MSVCRT:_gshandler_.obj
 0001:00027350       __chkstk                   0000000180028350 f   MSVCRT:_chkstk_.obj
 0001:00027350       _alloca_probe              0000000180028350 f   MSVCRT:_chkstk_.obj
 0001:000273b0       __vdecl_cos2               00000001800283b0 f   MSVCRT:_svml_dcos2_dispatch_.obj
 0001:000273c0       __vdecl_sin2               00000001800283c0 f   MSVCRT:_svml_dsin2_dispatch_.obj
 0001:000273d0       __libm_sse2_sincos_        00000001800283d0 f   MSVCRT:_svml_dsin2_dispatch_.obj
 0001:00027920       __sse2_cos2                0000000180028920 f   MSVCRT:_svml_dcos2_sse2_.obj
 0001:000282b0       __sse2_sin2                00000001800292b0 f   MSVCRT:_svml_dsin2_sse2_.obj
 0001:00028770       memcpy                     0000000180029770 f   vcruntime:VCRUNTIME140.dll
 0001:00028776       atan                       0000000180029776 f   ucrt:api-ms-win-crt-math-l1-1-0.dll
 0001:0002877c       atan2                      000000018002977c f   ucrt:api-ms-win-crt-math-l1-1-0.dll
 0001:00028782       cos                        0000000180029782 f   ucrt:api-ms-win-crt-math-l1-1-0.dll
 0001:00028788       exp                        0000000180029788 f   ucrt:api-ms-win-crt-math-l1-1-0.dll
 0001:0002878e       floor                      000000018002978e f   ucrt:api-ms-win-crt-math-l1-1-0.dll
 0001:00028794       fmodf                      0000000180029794 f   ucrt:api-ms-win-crt-math-l1-1-0.dll
 0001:0002879a       log                        000000018002979a f   ucrt:api-ms-win-crt-math-l1-1-0.dll
 0001:000287a0       log10                      00000001800297a0 f   ucrt:api-ms-win-crt-math-l1-1-0.dll
 0001:000287a6       pow                        00000001800297a6 f   ucrt:api-ms-win-crt-math-l1-1-0.dll
 0001:000287ac       sin                        00000001800297ac f   ucrt:api-ms-win-crt-math-l1-1-0.dll
 0001:000287b2       sqrt                       00000001800297b2 f   ucrt:api-ms-win-crt-math-l1-1-0.dll
 0001:000287d0       _guard_dispatch_icall_nop  00000001800297d0 f   MSVCRT:_guard_dispatch_.obj
 0001:000287f0       __guard_ss_verify_failure  00000001800297f0 f   MSVCRT:_rfgfailure_.obj
 0001:000287fb       __guard_ss_verify_failure_rcx 00000001800297fb     MSVCRT:_rfgfailure_.obj
 0001:00028801       __guard_ss_verify_failure_rdx 0000000180029801     MSVCRT:_rfgfailure_.obj
 0001:00028807       __guard_ss_verify_failure_r8 0000000180029807     MSVCRT:_rfgfailure_.obj
 0001:0002880d       __guard_ss_verify_failure_r9 000000018002980d     MSVCRT:_rfgfailure_.obj
 0001:00028813       __guard_ss_verify_failure_r10 0000000180029813     MSVCRT:_rfgfailure_.obj
 0001:00028820       __guard_ss_verify_failure_default 0000000180029820 f   MSVCRT:_rfgfailure_.obj
 0001:00028880       __guard_ss_verify_sp       0000000180029880 f   MSVCRT:_rfgfailure_.obj
 0001:00028890       __guard_ss_verify_sp_default 0000000180029890 f   MSVCRT:_rfgfailure_.obj
 0002:00000000       __imp_EnterCriticalSection 000000018002a000     kernel32:KERNEL32.dll
 0002:00000008       __imp_GetModuleHandleW     000000018002a008     kernel32:KERNEL32.dll
 0002:00000010       __imp_RtlCaptureContext    000000018002a010     kernel32:KERNEL32.dll
 0002:00000018       __imp_RtlLookupFunctionEntry 000000018002a018     kernel32:KERNEL32.dll
 0002:00000020       __imp_RtlVirtualUnwind     000000018002a020     kernel32:KERNEL32.dll
 0002:00000028       __imp_UnhandledExceptionFilter 000000018002a028     kernel32:KERNEL32.dll
 0002:00000030       __imp_SetUnhandledExceptionFilter 000000018002a030     kernel32:KERNEL32.dll
 0002:00000038       __imp_GetCurrentProcess    000000018002a038     kernel32:KERNEL32.dll
 0002:00000040       __imp_TerminateProcess     000000018002a040     kernel32:KERNEL32.dll
 0002:00000048       __imp_IsProcessorFeaturePresent 000000018002a048     kernel32:KERNEL32.dll
 0002:00000050       __imp_GetCurrentProcessId  000000018002a050     kernel32:KERNEL32.dll
 0002:00000058       __imp_DisableThreadLibraryCalls 000000018002a058     kernel32:KERNEL32.dll
 0002:00000060       __imp_InitializeSListHead  000000018002a060     kernel32:KERNEL32.dll
 0002:00000068       __imp_IsDebuggerPresent    000000018002a068     kernel32:KERNEL32.dll
 0002:00000070       __imp_GetSystemTimeAsFileTime 000000018002a070     kernel32:KERNEL32.dll
 0002:00000078       __imp_GetStartupInfoW      000000018002a078     kernel32:KERNEL32.dll
 0002:00000080       __imp_InitializeCriticalSectionAndSpinCount 000000018002a080     kernel32:KERNEL32.dll
 0002:00000088       __imp_LeaveCriticalSection 000000018002a088     kernel32:KERNEL32.dll
 0002:00000090       __imp_QueryPerformanceFrequency 000000018002a090     kernel32:KERNEL32.dll
 0002:00000098       __imp_DeleteCriticalSection 000000018002a098     kernel32:KERNEL32.dll
 0002:000000a0       __imp_QueryPerformanceCounter 000000018002a0a0     kernel32:KERNEL32.dll
 0002:000000a8       __imp_GetCurrentThreadId   000000018002a0a8     kernel32:KERNEL32.dll
 0002:000000b0       __imp_Sleep                000000018002a0b0     kernel32:KERNEL32.dll
 0002:000000b8       \177KERNEL32_NULL_THUNK_DATA 000000018002a0b8     kernel32:KERNEL32.dll
 0002:000000c0       __imp___std_type_info_destroy_list 000000018002a0c0     vcruntime:VCRUNTIME140.dll
 0002:000000c8       __imp_memset               000000018002a0c8     vcruntime:VCRUNTIME140.dll
 0002:000000d0       __imp_memcpy               000000018002a0d0     vcruntime:VCRUNTIME140.dll
 0002:000000d8       __imp___C_specific_handler 000000018002a0d8     vcruntime:VCRUNTIME140.dll
 0002:000000e0       \177VCRUNTIME140_NULL_THUNK_DATA 000000018002a0e0     vcruntime:VCRUNTIME140.dll
 0002:000000e8       __imp_timeSetEvent         000000018002a0e8     winMM:WINMM.dll
 0002:000000f0       __imp_timeKillEvent        000000018002a0f0     winMM:WINMM.dll
 0002:000000f8       \177WINMM_NULL_THUNK_DATA  000000018002a0f8     winMM:WINMM.dll
 0002:00000100       __imp_getenv               000000018002a100     ucrt:api-ms-win-crt-environment-l1-1-0.dll
 0002:00000108       \177api-ms-win-crt-environment-l1-1-0_NULL_THUNK_DATA 000000018002a108     ucrt:api-ms-win-crt-environment-l1-1-0.dll
 0002:00000110       __imp__fstat64i32          000000018002a110     ucrt:api-ms-win-crt-filesystem-l1-1-0.dll
 0002:00000118       __imp__stat64i32           000000018002a118     ucrt:api-ms-win-crt-filesystem-l1-1-0.dll
 0002:00000120       \177api-ms-win-crt-filesystem-l1-1-0_NULL_THUNK_DATA 000000018002a120     ucrt:api-ms-win-crt-filesystem-l1-1-0.dll
 0002:00000128       __imp_free                 000000018002a128     ucrt:api-ms-win-crt-heap-l1-1-0.dll
 0002:00000130       __imp_calloc               000000018002a130     ucrt:api-ms-win-crt-heap-l1-1-0.dll
 0002:00000138       __imp__aligned_malloc      000000018002a138     ucrt:api-ms-win-crt-heap-l1-1-0.dll
 0002:00000140       __imp__aligned_free        000000018002a140     ucrt:api-ms-win-crt-heap-l1-1-0.dll
 0002:00000148       \177api-ms-win-crt-heap-l1-1-0_NULL_THUNK_DATA 000000018002a148     ucrt:api-ms-win-crt-heap-l1-1-0.dll
 0002:00000150       __imp_log                  000000018002a150     ucrt:api-ms-win-crt-math-l1-1-0.dll
 0002:00000158       __imp_floor                000000018002a158     ucrt:api-ms-win-crt-math-l1-1-0.dll
 0002:00000160       __imp_exp                  000000018002a160     ucrt:api-ms-win-crt-math-l1-1-0.dll
 0002:00000168       __imp_log10                000000018002a168     ucrt:api-ms-win-crt-math-l1-1-0.dll
 0002:00000170       __imp_pow                  000000018002a170     ucrt:api-ms-win-crt-math-l1-1-0.dll
 0002:00000178       __imp_sin                  000000018002a178     ucrt:api-ms-win-crt-math-l1-1-0.dll
 0002:00000180       __imp_cos                  000000018002a180     ucrt:api-ms-win-crt-math-l1-1-0.dll
 0002:00000188       __imp_sqrt                 000000018002a188     ucrt:api-ms-win-crt-math-l1-1-0.dll
 0002:00000190       __imp_atan2                000000018002a190     ucrt:api-ms-win-crt-math-l1-1-0.dll
 0002:00000198       __imp_fmodf                000000018002a198     ucrt:api-ms-win-crt-math-l1-1-0.dll
 0002:000001a0       __imp_atan                 000000018002a1a0     ucrt:api-ms-win-crt-math-l1-1-0.dll
 0002:000001a8       \177api-ms-win-crt-math-l1-1-0_NULL_THUNK_DATA 000000018002a1a8     ucrt:api-ms-win-crt-math-l1-1-0.dll
 0002:000001b0       __imp__initialize_onexit_table 000000018002a1b0     ucrt:api-ms-win-crt-runtime-l1-1-0.dll
 0002:000001b8       __imp__register_onexit_function 000000018002a1b8     ucrt:api-ms-win-crt-runtime-l1-1-0.dll
 0002:000001c0       __imp__execute_onexit_table 000000018002a1c0     ucrt:api-ms-win-crt-runtime-l1-1-0.dll
 0002:000001c8       __imp__crt_atexit          000000018002a1c8     ucrt:api-ms-win-crt-runtime-l1-1-0.dll
 0002:000001d0       __imp__crt_at_quick_exit   000000018002a1d0     ucrt:api-ms-win-crt-runtime-l1-1-0.dll
 0002:000001d8       __imp__cexit               000000018002a1d8     ucrt:api-ms-win-crt-runtime-l1-1-0.dll
 0002:000001e0       __imp_terminate            000000018002a1e0     ucrt:api-ms-win-crt-runtime-l1-1-0.dll
 0002:000001e8       __imp__initterm            000000018002a1e8     ucrt:api-ms-win-crt-runtime-l1-1-0.dll
 0002:000001f0       __imp__initterm_e          000000018002a1f0     ucrt:api-ms-win-crt-runtime-l1-1-0.dll
 0002:000001f8       __imp_exit                 000000018002a1f8     ucrt:api-ms-win-crt-runtime-l1-1-0.dll
 0002:00000200       __imp_perror               000000018002a200     ucrt:api-ms-win-crt-runtime-l1-1-0.dll
 0002:00000208       __imp__initialize_narrow_environment 000000018002a208     ucrt:api-ms-win-crt-runtime-l1-1-0.dll
 0002:00000210       __imp__configure_narrow_argv 000000018002a210     ucrt:api-ms-win-crt-runtime-l1-1-0.dll
 0002:00000218       __imp__seh_filter_dll      000000018002a218     ucrt:api-ms-win-crt-runtime-l1-1-0.dll
 0002:00000220       \177api-ms-win-crt-runtime-l1-1-0_NULL_THUNK_DATA 000000018002a220     ucrt:api-ms-win-crt-runtime-l1-1-0.dll
 0002:00000228       __imp__write               000000018002a228     ucrt:api-ms-win-crt-stdio-l1-1-0.dll
 0002:00000230       __imp_fread                000000018002a230     ucrt:api-ms-win-crt-stdio-l1-1-0.dll
 0002:00000238       __imp_fclose               000000018002a238     ucrt:api-ms-win-crt-stdio-l1-1-0.dll
 0002:00000240       __imp_fflush               000000018002a240     ucrt:api-ms-win-crt-stdio-l1-1-0.dll
 0002:00000248       __imp_freopen              000000018002a248     ucrt:api-ms-win-crt-stdio-l1-1-0.dll
 0002:00000250       __imp_fopen                000000018002a250     ucrt:api-ms-win-crt-stdio-l1-1-0.dll
 0002:00000258       __imp___stdio_common_vsprintf 000000018002a258     ucrt:api-ms-win-crt-stdio-l1-1-0.dll
 0002:00000260       __imp___acrt_iob_func      000000018002a260     ucrt:api-ms-win-crt-stdio-l1-1-0.dll
 0002:00000268       __imp___stdio_common_vfprintf 000000018002a268     ucrt:api-ms-win-crt-stdio-l1-1-0.dll
 0002:00000270       \177api-ms-win-crt-stdio-l1-1-0_NULL_THUNK_DATA 000000018002a270     ucrt:api-ms-win-crt-stdio-l1-1-0.dll
 0002:00000278       __imp_strtok               000000018002a278     ucrt:api-ms-win-crt-string-l1-1-0.dll
 0002:00000280       \177api-ms-win-crt-string-l1-1-0_NULL_THUNK_DATA 000000018002a280     ucrt:api-ms-win-crt-string-l1-1-0.dll
 0002:00000288       __imp___daylight           000000018002a288     ucrt:api-ms-win-crt-time-l1-1-0.dll
 0002:00000290       __imp__tzset               000000018002a290     ucrt:api-ms-win-crt-time-l1-1-0.dll
 0002:00000298       __imp___timezone           000000018002a298     ucrt:api-ms-win-crt-time-l1-1-0.dll
 0002:000002a0       \177api-ms-win-crt-time-l1-1-0_NULL_THUNK_DATA 000000018002a2a0     ucrt:api-ms-win-crt-time-l1-1-0.dll
 0002:000002a8       __imp_fftwf_destroy_plan   000000018002a2a8     libfftw3f-3_x64:libfftw3f-3.dll
 0002:000002b0       __imp_fftwf_plan_dft_1d    000000018002a2b0     libfftw3f-3_x64:libfftw3f-3.dll
 0002:000002b8       __imp_fftwf_import_wisdom_from_string 000000018002a2b8     libfftw3f-3_x64:libfftw3f-3.dll
 0002:000002c0       __imp_fftwf_execute        000000018002a2c0     libfftw3f-3_x64:libfftw3f-3.dll
 0002:000002c8       \177libfftw3f-3_NULL_THUNK_DATA 000000018002a2c8     libfftw3f-3_x64:libfftw3f-3.dll
 0002:000002d0       __imp_sem_post             000000018002a2d0     pthreadVC_x64:pthreadVC_x64.dll
 0002:000002d8       __imp_sem_init             000000018002a2d8     pthreadVC_x64:pthreadVC_x64.dll
 0002:000002e0       __imp_pthread_exit         000000018002a2e0     pthreadVC_x64:pthreadVC_x64.dll
 0002:000002e8       __imp_sem_wait             000000018002a2e8     pthreadVC_x64:pthreadVC_x64.dll
 0002:000002f0       __imp_sem_destroy          000000018002a2f0     pthreadVC_x64:pthreadVC_x64.dll
 0002:000002f8       \177pthreadVC_x64_NULL_THUNK_DATA 000000018002a2f8     pthreadVC_x64:pthreadVC_x64.dll
 0002:00000300       __guard_check_icall_fptr   000000018002a300     MSVCRT:guard_support.obj
 0002:00000308       __guard_dispatch_icall_fptr 000000018002a308     MSVCRT:guard_support.obj
 0002:00000310       __guard_ss_verify_failure_fptr 000000018002a310     MSVCRT:guard_support.obj
 0002:00000318       __guard_ss_verify_sp_fptr  000000018002a318     MSVCRT:guard_support.obj
 0002:00000320       __xc_a                     000000018002a320     MSVCRT:initializers.obj
 0002:00000328       __xc_z                     000000018002a328     MSVCRT:initializers.obj
 0002:00000330       __xi_a                     000000018002a330     MSVCRT:initializers.obj
 0002:00000338       __xi_z                     000000018002a338     MSVCRT:initializers.obj
 0002:00000340       __xp_a                     000000018002a340     MSVCRT:initializers.obj
 0002:00000348       __xp_z                     000000018002a348     MSVCRT:initializers.obj
 0002:00000350       __xt_a                     000000018002a350     MSVCRT:initializers.obj
 0002:00000358       __xt_z                     000000018002a358     MSVCRT:initializers.obj
 0002:00000360       _pDefaultRawDllMain        000000018002a360     MSVCRT:dll_dllmain.obj
 0002:00000360       _pRawDllMain               000000018002a360     MSVCRT:dll_dllmain.obj
 0002:00000380       cxJ                        000000018002a380     cxops.obj
 0002:00000388       cxone                      000000018002a388     cxops.obj
 0002:00000390       cxminusone                 000000018002a390     cxops.obj
 0002:00000398       cxminusJ                   000000018002a398     cxops.obj
 0002:000003a0       WFMde_emphasisTimeUS       000000018002a3a0     fm_demod.obj
 0002:000003a4       WFMde_emphasisTimeEU       000000018002a3a4     fm_demod.obj
 0002:000003a8       NFMde_emphasisTime         000000018002a3a8     fm_demod.obj
 0002:000003ac       _pllPhaseAdjM              000000018002a3ac     fm_stereo_decoder.obj
 0002:000003b0       PllRange                   000000018002a3b0     fm_stereo_decoder.obj
 0002:000003b4       PllZeta                    000000018002a3b4     fm_stereo_decoder.obj
 0002:000003b8       PllLockTime                000000018002a3b8     fm_stereo_decoder.obj
 0002:000003bc       PllBandwith                000000018002a3bc     fm_stereo_decoder.obj
 0002:000003c0       PilotFrequency             000000018002a3c0     fm_stereo_decoder.obj
 0002:000003c4       _deemphasisTime            000000018002a3c4     fm_stereo_decoder.obj
 0002:000003c8       PllThreshold               000000018002a3c8     fm_stereo_decoder.obj
 0002:000003cc       _pllPhaseAdjB              000000018002a3cc     fm_stereo_decoder.obj
 0002:00000858       __real@3379b604aaaca626    000000018002a858     spectrum.obj
 0002:00000860       __real@33d6bf95            000000018002a860     sdr.obj
 0002:00000864       __real@358637bd            000000018002a864     sdr.obj
 0002:00000868       __real@3727c5ac            000000018002a868     am_demod.obj
 0002:0000086c       __real@3851b717            000000018002a86c     dcblock.obj
 0002:00000870       __real@38d1b717            000000018002a870     am_demod.obj
 0002:00000874       __real@391d4952            000000018002a874     fm_demod.obj
 0002:00000878       __real@3a83126f            000000018002a878     fm_demod.obj
 0002:0000087c       __real@3ac49ba6            000000018002a87c     fm_demod.obj
 0002:00000880       __real@3b000000            000000018002a880     update.obj
 0002:00000884       __real@3b007358            000000018002a884     hilbert.obj
 0002:00000888       __real@3b30f27c            000000018002a888     update.obj
 0002:0000088c       __real@3b449ba6            000000018002a88c     update.obj
 0002:00000890       __real@3b800000            000000018002a890     lmadf.obj
 0002:00000898       __real@3bc79ca10c924223    000000018002a898     sdr.obj
 0002:000008a0       __real@3c23d70a            000000018002a8a0     update.obj
 0002:000008a8       __real@3c670ef54646d497    000000018002a8a8     sdr.obj
 0002:000008b0       __real@3c9cd2b297d889bc    000000018002a8b0     sdr.obj
 0002:000008b8       __real@3dcccccd            000000018002a8b8     update.obj
 0002:000008c0       __real@3ddb7cdfd9d7bdbb    000000018002a8c0     sdr.obj
 0002:000008c8       __real@3e7ff19e23a836fc    000000018002a8c8     lmadf.obj
 0002:000008d0       __real@3e800000            000000018002a8d0     am_demod.obj
 0002:000008d4       __real@3e99999a            000000018002a8d4     am_demod.obj
 0002:000008d8       __real@3ee0c49c            000000018002a8d8     hilbert.obj
 0002:000008dc       __real@3ee66666            000000018002a8dc     resampleF.obj
 0002:000008e0       __real@3f000000            000000018002a8e0     fm_stereo_decoder.obj
 0002:000008e8       __real@3f0506286168bdbe    000000018002a8e8     update.obj
 0002:000008f0       __real@3f160419            000000018002a8f0     hilbert.obj
 0002:000008f8       __real@3f30000000000000    000000018002a8f8     fastrig1.obj
 0002:00000900       __real@3f3504f7            000000018002a900     update.obj
 0002:00000904       __real@3f3cac08            000000018002a904     hilbert.obj
 0002:00000908       __real@3f400000            000000018002a908     noiseblanker.obj
 0002:00000910       __real@3f40624dd2f1a9fc    000000018002a910     sdr.obj
 0002:00000918       __real@3f50624dd2f1a9fc    000000018002a918     update.obj
 0002:00000920       __real@3f50624de0000000    000000018002a920     fm_stereo_decoder.obj
 0002:00000928       __real@3f661e4f765fd8ae    000000018002a928     update.obj
 0002:00000930       __real@3f689374bc6a7efa    000000018002a930     update.obj
 0002:00000938       __real@3f6a4a78c17f3333    000000018002a938     update.obj
 0002:00000940       __real@3f6c8b44            000000018002a940     hilbert.obj
 0002:00000948       __real@3f70101029aa03b0    000000018002a948     fastrig1.obj
 0002:00000950       __real@3f747ae147ae147b    000000018002a950     winmain.obj
 0002:00000958       __real@3f7ff972            000000018002a958     am_demod.obj
 0002:0000095c       __real@3f7ffcb9            000000018002a95c     dcblock.obj
 0002:00000960       __real@3f7fff58            000000018002a960     am_demod.obj
 0002:00000964       __real@3f800000            000000018002a964     fm_stereo_decoder.obj
 0002:00000968       __real@3f85cb0040000000    000000018002a968     window.obj
 0002:00000970       __real@3f87ebaf20000000    000000018002a970     window.obj
 0002:00000978       __real@3f8a3d71            000000018002a978     sdr.obj
 0002:0000097c       __real@3f8ccccd            000000018002a97c     sdr.obj
 0002:00000980       __real@3fa5176145953587    000000018002a980     window.obj
 0002:00000988       __real@3fa7ebaf102363b2    000000018002a988     window.obj
 0002:00000990       __real@3fa999999999999a    000000018002a990     update.obj
 0002:00000998       __real@3faf60e9ef854f03    000000018002a998     update.obj
 0002:000009a0       __real@3fb4fdf4            000000018002a9a0     sdr.obj
 0002:000009a8       __real@3fb58372e6a76966    000000018002a9a8     window.obj
 0002:000009b0       __real@3fc17c17a0000000    000000018002a9b0     window.obj
 0002:000009b8       __real@3fc2157680000000    000000018002a9b8     window.obj
 0002:000009c0       __real@3fc3333333333334    000000018002a9c0     sdr.obj
 0002:000009c8       __real@3fc447c30d306a2b    000000018002a9c8     window.obj
 0002:000009d0       __real@3fc90fdb            000000018002a9d0     fastrig1.obj
 0002:000009d8       __real@3fc999999999999a    000000018002a9d8     dttspagc.obj
 0002:000009e0       __real@3fca934acaff6d33    000000018002a9e0     window.obj
 0002:000009e8       __real@3fcbd60e94ee392e    000000018002a9e8     window.obj
 0002:000009f0       __real@3fd0000000000000    000000018002a9f0     speechproc.obj
 0002:000009f8       __real@3fd2157689ca18bd    000000018002a9f8     window.obj
 0002:00000a00       __real@3fd2a71de69ad42c    000000018002aa00     window.obj
 0002:00000a08       __real@3fd6044284dfce31    000000018002aa08     window.obj
 0002:00000a10       __real@3fd6f5c280000000    000000018002aa10     window.obj
 0002:00000a18       __real@3fd744ed00000000    000000018002aa18     window.obj
 0002:00000a20       __real@3fd80b673c4f3ba7    000000018002aa20     window.obj
 0002:00000a28       __real@3fdd020c49ba5e35    000000018002aa28     window.obj
 0002:00000a30       __real@3fdd70a3d70a3d71    000000018002aa30     window.obj
 0002:00000a38       __real@3fdf4024c0000000    000000018002aa38     window.obj
 0002:00000a40       __real@3fdf4eaf20000000    000000018002aa40     window.obj
 0002:00000a48       __real@3fdfd7dbf487fcb9    000000018002aa48     window.obj
 0002:00000a50       __real@3fe00000            000000018002aa50     fm_stereo_decoder.obj
 0002:00000a58       __real@3fe0000000000000    000000018002aa58     update.obj
 0002:00000a60       __real@3fe147ae147ae148    000000018002aa60     window.obj
 0002:00000a68       __real@3fe921fb60000000    000000018002aa68     sdr.obj
 0002:00000a70       __real@3fedec74263f1a4c    000000018002aa70     dcblock.obj
 0002:00000a78       __real@3fee666666666666    000000018002aa78     sdr.obj
 0002:00000a80       __real@3fee6c0bad89f0c2    000000018002aa80     dcblock.obj
 0002:00000a88       __real@3fef3b2f067379af    000000018002aa88     update.obj
 0002:00000a90       __real@3fef3e2df3b6cf12    000000018002aa90     dcblock.obj
 0002:00000a98       __real@3fef69c4ba752a7b    000000018002aa98     dcblock.obj
 0002:00000aa0       __real@3feff7ced916872b    000000018002aaa0     am_demod.obj
 0002:00000aa8       __real@3feffbe76c8b4396    000000018002aaa8     sdr.obj
 0002:00000ab0       __real@3ff0000000000000    000000018002aab0     fastrig1.obj
 0002:00000ab8       __real@3ff026151dd2009c    000000018002aab8     dcblock.obj
 0002:00000ac0       __real@3ff03126e978d4fe    000000018002aac0     dcblock.obj
 0002:00000ac8       __real@3ff068e245afe286    000000018002aac8     dcblock.obj
 0002:00000ad0       __real@3ff08bb964c3ac9b    000000018002aad0     dcblock.obj
 0002:00000ad8       __real@3ffdf13d            000000018002aad8     graphiceq.obj
 0002:00000adc       __real@3ffefb9f            000000018002aadc     graphiceq.obj
 0002:00000ae0       __real@3fff7e90            000000018002aae0     graphiceq.obj
 0002:00000ae8       __real@3fffb43066863918    000000018002aae8     dcblock.obj
 0002:00000af0       __real@3fffec36            000000018002aaf0     fm_stereo_decoder.obj
 0002:00000af4       __real@40000000            000000018002aaf4     fm_stereo_decoder.obj
 0002:00000af8       __real@4000000000000000    000000018002aaf8     window.obj
 0002:00000b00       __real@4008000000000000    000000018002ab00     window.obj
 0002:00000b08       __real@400921fb54442895    000000018002ab08     update.obj
 0002:00000b10       __real@400f6e0e7a5afec3    000000018002ab10     dcblock.obj
 0002:00000b18       __real@400fcef675f1267c    000000018002ab18     dcblock.obj
 0002:00000b20       __real@4010000000000000    000000018002ab20     dcblock.obj
 0002:00000b28       __real@4017024316046d30    000000018002ab28     dcblock.obj
 0002:00000b30       __real@4017b6bcba277b11    000000018002ab30     dcblock.obj
 0002:00000b38       __real@4017cc3802233b86    000000018002ab38     dcblock.obj
 0002:00000b40       __real@4018000000000000    000000018002ab40     dcblock.obj
 0002:00000b48       __real@401921fb54442895    000000018002ab48     fastrig1.obj
 0002:00000b50       __real@401e2cb149e47a93    000000018002ab50     dcblock.obj
 0002:00000b58       __real@401fbb4dc27b712d    000000018002ab58     dcblock.obj
 0002:00000b60       __real@40200000            000000018002ab60     sdr.obj
 0002:00000b68       __real@4020000000000000    000000018002ab68     dcblock.obj
 0002:00000b70       __real@4024000000000000    000000018002ab70     update.obj
 0002:00000b78       __real@402d00fc4829534f    000000018002ab78     dcblock.obj
 0002:00000b80       __real@402d7f3364dc4d9e    000000018002ab80     dcblock.obj
 0002:00000b88       __real@402e000000000000    000000018002ab88     dcblock.obj
 0002:00000b90       __real@40337fd96de75b91    000000018002ab90     dcblock.obj
 0002:00000b98       __real@4034000000000000    000000018002ab98     update.obj
 0002:00000ba0       __real@403a9fdaa73393b4    000000018002aba0     dcblock.obj
 0002:00000ba8       __real@403b885b6be5c607    000000018002aba8     dcblock.obj
 0002:00000bb0       __real@403c000000000000    000000018002abb0     dcblock.obj
 0002:00000bb8       __real@403e000000000000    000000018002abb8     sdr.obj
 0002:00000bc0       __real@40490fdb            000000018002abc0     fastrig1.obj
 0002:00000bc8       __real@404ad925b661c028    000000018002abc8     dcblock.obj
 0002:00000bd0       __real@404b4d648b76517c    000000018002abd0     dcblock.obj
 0002:00000bd8       __real@404c000000000000    000000018002abd8     dcblock.obj
 0002:00000be0       __real@4050ebdea49fa0de    000000018002abe0     dcblock.obj
 0002:00000be8       __real@4051800000000000    000000018002abe8     dcblock.obj
 0002:00000bf0       __real@40533333            000000018002abf0     sdr.obj
 0002:00000bf8       __real@4059000000000000    000000018002abf8     update.obj
 0002:00000c00       __real@405ec00000000000    000000018002ac00     sdr.obj
 0002:00000c08       __real@406f400000000000    000000018002ac08     update.obj
 0002:00000c10       __real@407f400000000000    000000018002ac10     update.obj
 0002:00000c18       __real@40800000            000000018002ac18     keyer.obj
 0002:00000c20       __real@4085e00000000000    000000018002ac20     sdr.obj
 0002:00000c28       __real@408f400000000000    000000018002ac28     spottone.obj
 0002:00000c30       __real@40b3d70a            000000018002ac30     sdr.obj
 0002:00000c34       __real@40c90fdb            000000018002ac34     fastrig1.obj
 0002:00000c38       __real@40d268639437ebb9    000000018002ac38     sdr.obj
 0002:00000c40       __real@40e7700000000000    000000018002ac40     fm_stereo_decoder.obj
 0002:00000c48       __real@40fd254855588a90    000000018002ac48     fm_stereo_decoder.obj
 0002:00000c50       __real@41200000            000000018002ac50     correctIQ.obj
 0002:00000c54       __real@41623d71            000000018002ac54     fm_stereo_decoder.obj
 0002:00000c58       __real@41800000            000000018002ac58     fm_stereo_decoder.obj
 0002:00000c5c       __real@41a00000            000000018002ac5c     fm_stereo_decoder.obj
 0002:00000c60       __real@41d2b9b0a15be647    000000018002ac60     oscillator.obj
 0002:00000c68       __real@42480000            000000018002ac68     keyer.obj
 0002:00000c6c       __real@43160000            000000018002ac6c     sdr.obj
 0002:00000c70       __real@437a0000            000000018002ac70     sdr.obj
 0002:00000c74       __real@437f8000            000000018002ac74     fastrig1.obj
 0002:00000c78       __real@43960000            000000018002ac78     sdr.obj
 0002:00000c7c       __real@43c80000            000000018002ac7c     update.obj
 0002:00000c80       __real@43fa0000            000000018002ac80     sdr.obj
 0002:00000c84       __real@44098000            000000018002ac84     sdr.obj
 0002:00000c88       __real@4422f983            000000018002ac88     fastrig1.obj
 0002:00000c8c       __real@447a0000            000000018002ac8c     am_demod.obj
 0002:00000c90       __real@44960000            000000018002ac90     keyer.obj
 0002:00000c94       __real@44bb8000            000000018002ac94     update.obj
 0002:00000c98       __real@44fa0000            000000018002ac98     sdr.obj
 0002:00000c9c       __real@45322000            000000018002ac9c     sdr.obj
 0002:00000ca0       __real@453b8000            000000018002aca0     sdr.obj
 0002:00000ca4       __real@45bb8000            000000018002aca4     graphiceq.obj
 0002:00000ca8       __real@45fa0000            000000018002aca8     fm_stereo_decoder.obj
 0002:00000cac       __real@46944800            000000018002acac     fm_stereo_decoder.obj
 0002:00000cb0       __real@46947000            000000018002acb0     fm_stereo_decoder.obj
 0002:00000cb4       __real@46949800            000000018002acb4     fm_stereo_decoder.obj
 0002:00000cb8       __real@469c4000            000000018002acb8     fm_stereo_decoder.obj
 0002:00000cbc       __real@46f70d9a            000000018002acbc     sdr.obj
 0002:00000cc0       __real@473b8000            000000018002acc0     graphiceq.obj
 0002:00000cc4       __real@47bb8000            000000018002acc4     graphiceq.obj
 0002:00000cc8       __real@47c35000            000000018002acc8     correctIQ.obj
 0002:00000ccc       __real@483b8000            000000018002accc     graphiceq.obj
 0002:00000cd0       __real@4bd75500            000000018002acd0     sdr.obj
 0002:00000cd4       __real@bdcccccd            000000018002acd4     sdr.obj
 0002:00000cd8       __real@bf7c0290            000000018002acd8     graphiceq.obj
 0002:00000cdc       __real@bf7dff4b            000000018002acdc     graphiceq.obj
 0002:00000ce0       __real@bf7eff25            000000018002ace0     graphiceq.obj
 0002:00000ce4       __real@bf800000            000000018002ace4     filter.obj
 0002:00000ce8       __real@bfc90fdb            000000018002ace8     fastrig1.obj
 0002:00000cf0       __real@bfe0000000000000    000000018002acf0     update.obj
 0002:00000cf8       __real@bff0000000000000    000000018002acf8     fm_demod.obj
 0002:00000d00       __real@bffdf13d            000000018002ad00     graphiceq.obj
 0002:00000d04       __real@bffefb9f            000000018002ad04     graphiceq.obj
 0002:00000d08       __real@bfff7e90            000000018002ad08     graphiceq.obj
 0002:00000d10       __real@c000000000000000    000000018002ad10     IirFilter.obj
 0002:00000d18       __real@c01921fb54442895    000000018002ad18     oscillator.obj
 0002:00000d20       __real@c024000000000000    000000018002ad20     sdr.obj
 0002:00000d28       __real@c034000000000000    000000018002ad28     sdr.obj
 0002:00000d30       __real@c08f400000000000    000000018002ad30     update.obj
 0002:00000d38       __real@c0c1940000000000    000000018002ad38     sdr.obj
 0002:00000d40       __real@c0c90fdb            000000018002ad40     fastrig1.obj
 0002:00000d44       __real@c1200000            000000018002ad44     correctIQ.obj
 0002:00000d48       __real@c3480000            000000018002ad48     update.obj
 0002:00000d4c       __real@c3c80000            000000018002ad4c     update.obj
 0002:00000d50       __real@c4bb8000            000000018002ad50     update.obj
 0002:00000d54       __real@c4fa0000            000000018002ad54     sdr.obj
 0002:00000d58       __real@c5bb8000            000000018002ad58     graphiceq.obj
 0002:00000d5c       __real@c61c4000            000000018002ad5c     sdr.obj
 0002:00000d60       __real@d8635fa9            000000018002ad60     bufvec.obj
 0002:00000d70       __xmm@00000001000000010000000100000001 000000018002ad70     keyerio.obj
 0002:00000d80       __xmm@00000003000000020000000100000000 000000018002ad80     window.obj
 0002:00000d90       __xmm@3c2e58023c2e58023c2e58023c2e5802 000000018002ad90     window.obj
 0002:00000da0       __xmm@3c3f5d793c3f5d793c3f5d793c3f5d79 000000018002ada0     window.obj
 0002:00000db0       __xmm@3e0be0bd3e0be0bd3e0be0bd3e0be0bd 000000018002adb0     window.obj
 0002:00000dc0       __xmm@3e10abb43e10abb43e10abb43e10abb4 000000018002adc0     window.obj
 0002:00000dd0       __xmm@3eb7ae143eb7ae143eb7ae143eb7ae14 000000018002add0     window.obj
 0002:00000de0       __xmm@3eba27683eba27683eba27683eba2768 000000018002ade0     window.obj
 0002:00000df0       __xmm@3efa01263efa01263efa01263efa0126 000000018002adf0     window.obj
 0002:00000e00       __xmm@3efa75793efa75793efa75793efa7579 000000018002ae00     window.obj
 0002:00000e10       __xmm@3f300000000000003f30000000000000 000000018002ae10     fastrig1.obj
 0002:00000e20       __xmm@3f8000003f8000003f8000003f800000 000000018002ae20     filter.obj
 0002:00000e30       __xmm@3ff00000000000003ff0000000000000 000000018002ae30     filter.obj
 0002:00000e40       __xmm@40000000000000004000000000000000 000000018002ae40     window.obj
 0002:00000e50       __xmm@40080000000000004008000000000000 000000018002ae50     window.obj
 0002:00000e60       __xmm@400921fb54442895400921fb54442895 000000018002ae60     hilbert.obj
 0002:00000e70       __xmm@401921fb54442895401921fb54442895 000000018002ae70     fastrig1.obj
 0002:00000e80       __xmm@402e000000000000402e000000000000 000000018002ae80     hilbert.obj
 0002:00000e90       __xmm@7fffffffffffffff7fffffffffffffff 000000018002ae90     fastrig1.obj
 0002:00000ea0       __xmm@80000000000000008000000000000000 000000018002aea0     fm_stereo_decoder.obj
 0002:00000eb0       __xmm@80000000800000008000000080000000 000000018002aeb0     fastrig1.obj
 0002:00000ec0       __xmm@ffffffffffffffffffffffffffffffff 000000018002aec0     keyerio.obj
 0002:00000f80       _load_config_used          000000018002af80     MSVCRT:loadcfg.obj
 0002:00001330       __rtc_iaa                  000000018002b330     MSVCRT:_initsect_.obj
 0002:00001338       __rtc_izz                  000000018002b338     MSVCRT:_initsect_.obj
 0002:00001340       __rtc_taa                  000000018002b340     MSVCRT:_initsect_.obj
 0002:00001348       __rtc_tzz                  000000018002b348     MSVCRT:_initsect_.obj
 0002:0000593c       __IMPORT_DESCRIPTOR_WINMM  000000018002f93c     winMM:WINMM.dll
 0002:00005950       __IMPORT_DESCRIPTOR_libfftw3f-3 000000018002f950     libfftw3f-3_x64:libfftw3f-3.dll
 0002:00005964       __IMPORT_DESCRIPTOR_pthreadVC_x64 000000018002f964     pthreadVC_x64:pthreadVC_x64.dll
 0002:00005978       __IMPORT_DESCRIPTOR_KERNEL32 000000018002f978     kernel32:KERNEL32.dll
 0002:0000598c       __IMPORT_DESCRIPTOR_VCRUNTIME140 000000018002f98c     vcruntime:VCRUNTIME140.dll
 0002:000059a0       __IMPORT_DESCRIPTOR_api-ms-win-crt-runtime-l1-1-0 000000018002f9a0     ucrt:api-ms-win-crt-runtime-l1-1-0.dll
 0002:000059b4       __IMPORT_DESCRIPTOR_api-ms-win-crt-time-l1-1-0 000000018002f9b4     ucrt:api-ms-win-crt-time-l1-1-0.dll
 0002:000059c8       __IMPORT_DESCRIPTOR_api-ms-win-crt-stdio-l1-1-0 000000018002f9c8     ucrt:api-ms-win-crt-stdio-l1-1-0.dll
 0002:000059dc       __IMPORT_DESCRIPTOR_api-ms-win-crt-filesystem-l1-1-0 000000018002f9dc     ucrt:api-ms-win-crt-filesystem-l1-1-0.dll
 0002:000059f0       __IMPORT_DESCRIPTOR_api-ms-win-crt-environment-l1-1-0 000000018002f9f0     ucrt:api-ms-win-crt-environment-l1-1-0.dll
 0002:00005a04       __IMPORT_DESCRIPTOR_api-ms-win-crt-heap-l1-1-0 000000018002fa04     ucrt:api-ms-win-crt-heap-l1-1-0.dll
 0002:00005a18       __IMPORT_DESCRIPTOR_api-ms-win-crt-string-l1-1-0 000000018002fa18     ucrt:api-ms-win-crt-string-l1-1-0.dll
 0002:00005a2c       __IMPORT_DESCRIPTOR_api-ms-win-crt-math-l1-1-0 000000018002fa2c     ucrt:api-ms-win-crt-math-l1-1-0.dll
 0002:00005a40       __NULL_IMPORT_DESCRIPTOR   000000018002fa40     winMM:WINMM.dll
 0003:00000000       __security_cookie          0000000180031000     MSVCRT:gs_cookie.obj
 0003:00000008       __security_cookie_complement 0000000180031008     MSVCRT:gs_cookie.obj
 0003:00000010       __scrt_native_dllmain_reason 0000000180031010     MSVCRT:utility.obj
 0003:00000018       __isa_available            0000000180031018     MSVCRT:_cpu_disp_.obj
 0003:0000001c       __isa_enabled              000000018003101c     MSVCRT:_cpu_disp_.obj
 0003:00000020       __memcpy_nt_iters          0000000180031020     MSVCRT:_cpu_disp_.obj
 0003:00000030       __scrt_ucrt_dll_is_in_use  0000000180031030     MSVCRT:ucrt_stubs.obj
 0003:000000e4       IQdoit                     00000001800310e4     correctIQ.obj
 0003:0000010c       TONE_SIZE                  000000018003110c     keyd.obj
 0003:00000144       key_poll_period            0000000180031144     keyd.obj
 0003:00000244       DEFSPEC                    0000000180031244     update.obj
 0003:0000026c       threadno                   000000018003126c     update.obj
 0003:00001350       _fltused                   0000000180032350     MSVCRT:fltused.obj
 0003:000018e0       ?__type_info_root_node@@3U__type_info_node@@A 00000001800328e0     MSVCRT:tncleanup.obj
 0003:000018f0       ?_OptionsStorage@?1??__local_stdio_printf_options@@9@4_KA 00000001800328f0     MSVCRT:default_local_stdio_options.obj
 0003:000018f8       ?_OptionsStorage@?1??__local_stdio_scanf_options@@9@4_KA 00000001800328f8     MSVCRT:default_local_stdio_options.obj
 0003:00001934       __scrt_current_native_startup_state 0000000180032934     MSVCRT:utility.obj
 0003:00001938       __scrt_native_startup_lock 0000000180032938     MSVCRT:utility.obj
 0003:00001944       __scrt_debugger_hook_flag  0000000180032944     MSVCRT:utility_desktop.obj
 0003:00001948       __favor                    0000000180032948     MSVCRT:_cpu_disp_.obj
 0003:00001958       IQsuspended                0000000180032958     correctIQ.obj
 0003:0000195c       IQBalanced                 000000018003295c     correctIQ.obj
 0003:00001960       IQfixed                    0000000180032960     correctIQ.obj
 0003:00001968       cxzero                     0000000180032968     cxops.obj
 0003:00001976       dotkey                     0000000180032976     keyd.obj
 0003:00001978       timerid                    0000000180032978     keyd.obj
 0003:00001c70       __dyn_tls_init_callback    0000000180032c70     <common>
 0003:00001c78       APP_DATA_PATH              0000000180032c78     <common>
 0003:00001c80       loc                        0000000180032c80     <common>
 0003:00007cb8       reset_em                   0000000180038cb8     <common>
 0003:00007cc0       tx                         0000000180038cc0     <common>
 0003:00007fa0       top                        0000000180038fa0     <common>
 0003:0000a540       rx                         000000018003b540     <common>
 0003:0000ac60       uni                        000000018003bc60     <common>
 0003:0004b000       kl                         000000018007c000     <common>
 0003:0004b008       monitor_fired              000000018007c008     <common>
 0003:0004b010       t1                         000000018007c010     <common>
 0003:0004b018       mon                        000000018007c018     <common>
 0003:0004b020       lring                      000000018007c020     <common>
 0003:0004b028       rring                      000000018007c028     <common>
 0003:0004b030       mon_rring                  000000018007c030     <common>
 0003:0004b038       clock_fired                000000018007c038     <common>
 0003:0004b040       gen                        000000018007c040     <common>
 0003:0004b048       ks                         000000018007c048     <common>
 0003:0004b050       keyer_started              000000018007c050     <common>
 0003:0004b058       poll_fired                 000000018007c058     <common>
 0003:0004b060       mon_lring                  000000018007c060     <common>
 0003:0004b080       diversity                  000000018007c080     <common>
 0003:0004b0d0       ?tzflag@?1??gettimeofday@@9@9 000000018007c0d0     <common>
 0003:0004b0d8       ?_OptionsStorage@?1??__local_stdio_printf_options@@9@9 000000018007c0d8     <common>
 0003:0004b0e0       ?_OptionsStorage@?1??__local_stdio_scanf_options@@9@9 000000018007c0e0     <common>

 entry point at        0001:00000814

 Static symbols

 0000:fff7c000       .debug$S                   0000000180000000     winMM:WINMM.dll
 0002:fffd6000       __guard_fids__             0000000180000000     MSVCRT:guard_support.obj
 0000:fff7c000       .debug$S                   0000000180000000     ucrt:api-ms-win-crt-math-l1-1-0.dll
 0000:fff7c000       .debug$S                   0000000180000000     ucrt:api-ms-win-crt-math-l1-1-0.dll
 0000:fff7c000       .debug$S                   0000000180000000     ucrt:api-ms-win-crt-math-l1-1-0.dll
 0000:fff7c000       .debug$S                   0000000180000000     ucrt:api-ms-win-crt-math-l1-1-0.dll
 0000:fff7c000       .debug$S                   0000000180000000     ucrt:api-ms-win-crt-math-l1-1-0.dll
 0000:fff7c000       .debug$S                   0000000180000000     ucrt:api-ms-win-crt-math-l1-1-0.dll
 0000:fff7c000       .debug$S                   0000000180000000     ucrt:api-ms-win-crt-math-l1-1-0.dll
 0000:fff7c000       .debug$S                   0000000180000000     ucrt:api-ms-win-crt-math-l1-1-0.dll
 0000:fff7c000       .debug$S                   0000000180000000     ucrt:api-ms-win-crt-math-l1-1-0.dll
 0000:fff7c000       .debug$S                   0000000180000000     ucrt:api-ms-win-crt-math-l1-1-0.dll
 0000:fff7c000       .debug$S                   0000000180000000     ucrt:api-ms-win-crt-math-l1-1-0.dll
 0000:fff7c000       .debug$S                   0000000180000000     vcruntime:VCRUNTIME140.dll
 0002:fffd6000       __guard_fids__guard_icall_checks_enforced 0000000180000000     MSVCRT:guard_support.obj
 0000:fff7c000       .debug$S                   0000000180000000     vcruntime:VCRUNTIME140.dll
 0000:fff7c000       .debug$S                   0000000180000000     vcruntime:VCRUNTIME140.dll
 0000:fff7c000       .debug$S                   0000000180000000     winMM:WINMM.dll
 0000:fff7c000       .debug$S                   0000000180000000     vcruntime:VCRUNTIME140.dll
 0000:fff7c000       .debug$S                   0000000180000000     libfftw3f-3_x64:libfftw3f-3.dll
 0000:fff7c000       .debug$S                   0000000180000000     libfftw3f-3_x64:libfftw3f-3.dll
 0000:fff7c000       .debug$S                   0000000180000000     libfftw3f-3_x64:libfftw3f-3.dll
 0000:fff7c000       .debug$S                   0000000180000000     libfftw3f-3_x64:libfftw3f-3.dll
 0000:fff7c000       .debug$S                   0000000180000000     ucrt:api-ms-win-crt-runtime-l1-1-0.dll
 0000:fff7c000       .debug$S                   0000000180000000     pthreadVC_x64:pthreadVC_x64.dll
 0000:fff7c000       .debug$S                   0000000180000000     pthreadVC_x64:pthreadVC_x64.dll
 0000:fff7c000       .debug$S                   0000000180000000     pthreadVC_x64:pthreadVC_x64.dll
 0000:fff7c000       .debug$S                   0000000180000000     pthreadVC_x64:pthreadVC_x64.dll
 0000:fff7c000       .debug$S                   0000000180000000     pthreadVC_x64:pthreadVC_x64.dll
 0000:fff7c000       .debug$S                   0000000180000000     ucrt:api-ms-win-crt-time-l1-1-0.dll
 0000:fff7c000       .debug$S                   0000000180000000     kernel32:KERNEL32.dll
 0000:fff7c000       .debug$S                   0000000180000000     kernel32:KERNEL32.dll
 0000:fff7c000       .debug$S                   0000000180000000     kernel32:KERNEL32.dll
 0000:fff7c000       .debug$S                   0000000180000000     kernel32:KERNEL32.dll
 0000:fff7c000       .debug$S                   0000000180000000     kernel32:KERNEL32.dll
 0000:fff7c000       .debug$S                   0000000180000000     kernel32:KERNEL32.dll
 0000:fff7c000       .debug$S                   0000000180000000     kernel32:KERNEL32.dll
 0000:fff7c000       .debug$S                   0000000180000000     kernel32:KERNEL32.dll
 0000:fff7c000       .debug$S                   0000000180000000     kernel32:KERNEL32.dll
 0000:fff7c000       .debug$S                   0000000180000000     ucrt:api-ms-win-crt-stdio-l1-1-0.dll
 0000:fff7c000       .debug$S                   0000000180000000     ucrt:api-ms-win-crt-stdio-l1-1-0.dll
 0000:fff7c000       .debug$S                   0000000180000000     ucrt:api-ms-win-crt-stdio-l1-1-0.dll
 0000:fff7c000       .debug$S                   0000000180000000     ucrt:api-ms-win-crt-time-l1-1-0.dll
 0000:fff7c000       .debug$S                   0000000180000000     ucrt:api-ms-win-crt-stdio-l1-1-0.dll
 0000:fff7c000       .debug$S                   0000000180000000     ucrt:api-ms-win-crt-filesystem-l1-1-0.dll
 0000:fff7c000       .debug$S                   0000000180000000     ucrt:api-ms-win-crt-time-l1-1-0.dll
 0000:fff7c000       .debug$S                   0000000180000000     ucrt:api-ms-win-crt-stdio-l1-1-0.dll
 0000:fff7c000       .debug$S                   0000000180000000     ucrt:api-ms-win-crt-filesystem-l1-1-0.dll
 0000:fff7c000       .debug$S                   0000000180000000     ucrt:api-ms-win-crt-environment-l1-1-0.dll
 0000:fff7c000       .debug$S                   0000000180000000     ucrt:api-ms-win-crt-heap-l1-1-0.dll
 0000:fff7c000       .debug$S                   0000000180000000     ucrt:api-ms-win-crt-heap-l1-1-0.dll
 0000:fff7c000       .debug$S                   0000000180000000     ucrt:api-ms-win-crt-runtime-l1-1-0.dll
 0000:fff7c000       .debug$S                   0000000180000000     ucrt:api-ms-win-crt-heap-l1-1-0.dll
 0000:fff7c000       .debug$S                   0000000180000000     ucrt:api-ms-win-crt-heap-l1-1-0.dll
 0000:fff7c000       .debug$S                   0000000180000000     ucrt:api-ms-win-crt-stdio-l1-1-0.dll
 0000:fff7c000       .debug$S                   0000000180000000     ucrt:api-ms-win-crt-stdio-l1-1-0.dll
 0000:fff7c000       .debug$S                   0000000180000000     ucrt:api-ms-win-crt-stdio-l1-1-0.dll
 0000:fff7c000       .debug$S                   0000000180000000     ucrt:api-ms-win-crt-string-l1-1-0.dll
 0000:fff7c000       .debug$S                   0000000180000000     ucrt:api-ms-win-crt-runtime-l1-1-0.dll
 0000:fff7c000       .debug$S                   0000000180000000     ucrt:api-ms-win-crt-runtime-l1-1-0.dll
 0000:fff7c000       .debug$S                   0000000180000000     ucrt:api-ms-win-crt-runtime-l1-1-0.dll
 0000:fff7c000       .debug$S                   0000000180000000     ucrt:api-ms-win-crt-runtime-l1-1-0.dll
 0000:fff7c000       .debug$S                   0000000180000000     ucrt:api-ms-win-crt-runtime-l1-1-0.dll
 0000:fff7c000       .debug$S                   0000000180000000     ucrt:api-ms-win-crt-runtime-l1-1-0.dll
 0000:fff7c000       .debug$S                   0000000180000000     ucrt:api-ms-win-crt-runtime-l1-1-0.dll
 0000:fff7c000       .debug$S                   0000000180000000     ucrt:api-ms-win-crt-runtime-l1-1-0.dll
 0002:fffd6000       __guard_fids_?dllmain_dispatch@@YAHQEAUHINSTANCE__@@KQEAX@Z 0000000180000000     MSVCRT:dll_dllmain.obj
 0000:fff7c000       .debug$S                   0000000180000000     ucrt:api-ms-win-crt-runtime-l1-1-0.dll
 0000:fff7c000       .debug$S                   0000000180000000     ucrt:api-ms-win-crt-runtime-l1-1-0.dll
 0000:fff7c000       .debug$S                   0000000180000000     ucrt:api-ms-win-crt-runtime-l1-1-0.dll
 0000:fff7c000       .debug$S                   0000000180000000     ucrt:api-ms-win-crt-runtime-l1-1-0.dll
 0000:fff7c000       .debug$S                   0000000180000000     ucrt:api-ms-win-crt-stdio-l1-1-0.dll
 0000:fff7c000       .debug$S                   0000000180000000     kernel32:KERNEL32.dll
 0000:fff7c000       .debug$S                   0000000180000000     kernel32:KERNEL32.dll
 0000:fff7c000       .debug$S                   0000000180000000     kernel32:KERNEL32.dll
 0000:fff7c000       .debug$S                   0000000180000000     kernel32:KERNEL32.dll
 0000:fff7c000       .debug$S                   0000000180000000     kernel32:KERNEL32.dll
 0000:fff7c000       .debug$S                   0000000180000000     kernel32:KERNEL32.dll
 0000:fff7c000       .debug$S                   0000000180000000     kernel32:KERNEL32.dll
 0000:fff7c000       .debug$S                   0000000180000000     kernel32:KERNEL32.dll
 0000:fff7c000       .debug$S                   0000000180000000     kernel32:KERNEL32.dll
 0000:fff7c000       .debug$S                   0000000180000000     kernel32:KERNEL32.dll
 0000:fff7c000       .debug$S                   0000000180000000     kernel32:KERNEL32.dll
 0000:fff7c000       .debug$S                   0000000180000000     kernel32:KERNEL32.dll
 0000:fff7c000       .debug$S                   0000000180000000     kernel32:KERNEL32.dll
 0000:fff7c000       .debug$S                   0000000180000000     kernel32:KERNEL32.dll
 0000:fff7c000       .debug$S                   0000000180000000     DttSP.exp
 0002:fffd6000       __guard_fids___scrt_set_unhandled_exception_filter 0000000180000000     MSVCRT:utility_desktop.obj
 0001:00000440       $$000000                   0000000180001440     MSVCRT:_amdsecgs_.obj
 0001:00000474       ?dllmain_crt_dispatch@@YAHQEAUHINSTANCE__@@KQEAX@Z 0000000180001474 f   MSVCRT:dll_dllmain.obj
 0001:000004c4       ?dllmain_crt_process_attach@@YAHQEAUHINSTANCE__@@QEAX@Z 00000001800014c4 f   MSVCRT:dll_dllmain.obj
 0001:000005e0       ?dllmain_crt_process_detach@@YAH_N@Z 00000001800015e0 f   MSVCRT:dll_dllmain.obj
 0001:00000670       ?dllmain_dispatch@@YAHQEAUHINSTANCE__@@KQEAX@Z 0000000180001670 f   MSVCRT:dll_dllmain.obj
 0001:000007b8       ?dllmain_raw@@YAHQEAUHINSTANCE__@@KQEAX@Z 00000001800017b8 f   MSVCRT:dll_dllmain.obj
 0001:00000b1c       capture_current_context    0000000180001b1c f   MSVCRT:gs_report.obj
 0001:00000b8c       capture_previous_context   0000000180001b8c f   MSVCRT:gs_report.obj
 0001:00000c00       __get_entropy              0000000180001c00 f   MSVCRT:gs_support.obj
 0001:00000dd8       ?find_pe_section@@YAPEAU_IMAGE_SECTION_HEADER@@QEAE_K@Z 0000000180001dd8 f   MSVCRT:utility.obj
 0001:00000e2c       ?is_potentially_valid_image_base@@YA_NQEAX@Z 0000000180001e2c f   MSVCRT:utility.obj
 0001:00001d20       dem                        0000000180002d20 f   am_demod.obj
 0001:00001d90       pll                        0000000180002d90 f   am_demod.obj
 0001:00001fc0       init_pll                   0000000180002fc0 f   am_demod.obj
 0001:00002050       Cmplx                      0000000180003050 f   am_demod.obj
 0001:00002060       Cmag                       0000000180003060 f   am_demod.obj
 0001:00002850       stat                       0000000180003850 f   banal.obj
 0001:00002860       fstat                      0000000180003860 f   banal.obj
 0001:00003410       Cabs                       0000000180004410 f   bufvec.obj
 0001:00003450       Cscl                       0000000180004450 f   bufvec.obj
 0001:00003de0       Conjg                      0000000180004de0 f   correctIQ.obj
 0001:00003e10       Cmplx                      0000000180004e10 f   correctIQ.obj
 0001:00003e20       Cmul                       0000000180004e20 f   correctIQ.obj
 0001:00003e70       Csub                       0000000180004e70 f   correctIQ.obj
 0001:00003eb0       Cadd                       0000000180004eb0 f   correctIQ.obj
 0001:00003ef0       Cscl                       0000000180004ef0 f   correctIQ.obj
 0001:00004670       Cmplx                      0000000180005670 f   cwtones.obj
 0001:00004680       Cscl                       0000000180005680 f   cwtones.obj
 0001:000046b0       butterworth_hipass_100_8   00000001800056b0 f   dcblock.obj
 0001:00004850       butterworth_hipass_100_6   0000000180005850 f   dcblock.obj
 0001:00004990       butterworth_hipass_100_4   0000000180005990 f   dcblock.obj
 0001:00004a70       butterworth_hipass_100_2   0000000180005a70 f   dcblock.obj
 0001:00005320       Cmplx                      0000000180006320 f   dcblock.obj
 0001:00005330       Csub                       0000000180006330 f   dcblock.obj
 0001:00005370       Cadd                       0000000180006370 f   dcblock.obj
 0001:000053b0       Cscl                       00000001800063b0 f   dcblock.obj
 0001:00005b20       Cmag                       0000000180006b20 f   dttspagc.obj
 0001:00005b60       Cscl                       0000000180006b60 f   dttspagc.obj
 0001:00007e70       Cmul                       0000000180008e70 f   filter.obj
 0001:00007ec0       Csub                       0000000180008ec0 f   filter.obj
 0001:00008510       Conjg                      0000000180009510 f   fm_demod.obj
 0001:00008540       Cmplx                      0000000180009540 f   fm_demod.obj
 0001:00008550       Cargument                  0000000180009550 f   fm_demod.obj
 0001:00008580       Cmodulus                   0000000180009580 f   fm_demod.obj
 0001:000085c0       Cdiv                       00000001800095c0 f   fm_demod.obj
 0001:00008640       Cmul                       0000000180009640 f   fm_demod.obj
 0001:00008a70       Cscl                       0000000180009a70 f   fm_stereo_decoder.obj
 0001:0000a170       Cmplx                      000000018000b170 f   graphiceq.obj
 0001:0000adb0       Cmplx                      000000018000bdb0 f   hilbert.obj
 0001:0000b170       ISOband_get_info           000000018000c170 f   isoband.obj
 0001:0000c0c0       whichkey                   000000018000d0c0 f   keyd.obj
 0001:0000e880       lmsr_adapt_n               000000018000f880 f   lmadf.obj
 0001:0000eab0       lmsr_adapt_i               000000018000fab0 f   lmadf.obj
 0001:0000ef10       Conjg                      000000018000ff10 f   lmadf.obj
 0001:0000ef40       Cmplx                      000000018000ff40 f   lmadf.obj
 0001:0000ef50       Csqrmag                    000000018000ff50 f   lmadf.obj
 0001:0000ef80       Cmul                       000000018000ff80 f   lmadf.obj
 0001:0000efd0       Csub                       000000018000ffd0 f   lmadf.obj
 0001:0000f010       Cadd                       0000000180010010 f   lmadf.obj
 0001:0000f050       Cscl                       0000000180010050 f   lmadf.obj
 0001:0000f420       Cmplx                      0000000180010420 f   noiseblanker.obj
 0001:0000f430       Cmag                       0000000180010430 f   noiseblanker.obj
 0001:0000f470       Cadd                       0000000180010470 f   noiseblanker.obj
 0001:0000f4b0       Cscl                       00000001800104b0 f   noiseblanker.obj
 0001:0000f5a0       _phasemod                  00000001800105a0 f   oscillator.obj
 0001:0000fb10       Cmul                       0000000180010b10 f   ovsv.obj
 0001:00010620       Cadd                       0000000180011620 f   resample.obj
 0001:00010660       Cscl                       0000000180011660 f   resample.obj
 0001:00012120       $LN92                      0000000180013120     sdr.obj
 0001:00012160       do_tx                      0000000180013160 f   sdr.obj
 0001:0001248c       $LN66                      000000018001348c     sdr.obj
 0001:000124d0       do_tx_NIL                  00000001800134d0 f   sdr.obj
 0001:00012540       do_tx_FM                   0000000180013540 f   sdr.obj
 0001:00012640       do_tx_AM                   0000000180013640 f   sdr.obj
 0001:000127b0       do_tx_SBCW                 00000001800137b0 f   sdr.obj
 0001:00012820       do_tx_post                 0000000180013820 f   sdr.obj
 0001:00012b90       do_tx_pre                  0000000180013b90 f   sdr.obj
 0001:00012fe0       do_tx_meter                0000000180013fe0 f   sdr.obj
 0001:00013d7c       $LN151                     0000000180014d7c     sdr.obj
 0001:00013da0       do_rx                      0000000180014da0 f   sdr.obj
 0001:00013e14       $LN23                      0000000180014e14     sdr.obj
 0001:00013e50       do_rx_SPEC                 0000000180014e50 f   sdr.obj
 0001:00013e60       do_rx_DRM                  0000000180014e60 f   sdr.obj
 0001:00013e70       do_rx_FM                   0000000180014e70 f   sdr.obj
 0001:00013ea0       do_rx_AM                   0000000180014ea0 f   sdr.obj
 0001:00013ed0       do_rx_SBCW                 0000000180014ed0 f   sdr.obj
 0001:00013ee0       do_rx_post                 0000000180014ee0 f   sdr.obj
 0001:00014550       do_rx_pre                  0000000180015550 f   sdr.obj
 0001:00014e50       no_tx_squelch              0000000180015e50 f   sdr.obj
 0001:00015040       no_squelch                 0000000180016040 f   sdr.obj
 0001:00015200       do_tx_squelch              0000000180016200 f   sdr.obj
 0001:000155d0       do_squelch                 00000001800165d0 f   sdr.obj
 0001:00015840       should_do_tx_squelch       0000000180016840 f   sdr.obj
 0001:000159e0       should_do_rx_squelch       00000001800169e0 f   sdr.obj
 0001:00015ba0       do_tx_spectrum             0000000180016ba0 f   sdr.obj
 0001:00015cd0       do_rx_scope_spectrum       0000000180016cd0 f   sdr.obj
 0001:00015d50       do_rx_spectrum             0000000180016d50 f   sdr.obj
 0001:00015e80       do_rx_meter                0000000180016e80 f   sdr.obj
 0001:000162d0       CXBpeak                    00000001800172d0 f   sdr.obj
 0001:00016460       CXBscl                     0000000180017460 f   sdr.obj
 0001:00017050       setup_tx                   0000000180018050 f   sdr.obj
 0001:000178b0       setup_rx                   00000001800188b0 f   sdr.obj
 0001:00018450       setup_all                  0000000180019450 f   sdr.obj
 0001:000188f0       Cmplx                      00000001800198f0 f   sdr.obj
 0001:00018900       Csqrmag                    0000000180019900 f   sdr.obj
 0001:00018930       Cmag                       0000000180019930 f   sdr.obj
 0001:00018970       Cmul                       0000000180019970 f   sdr.obj
 0001:000189c0       Csub                       00000001800199c0 f   sdr.obj
 0001:00018a00       CaddA                      0000000180019a00 f   sdr.obj
 0001:00018a40       Cscl                       0000000180019a40 f   sdr.obj
 0001:00019380       Csqrmag                    000000018001a380 f   spectrum.obj
 0001:000193b0       Cmag                       000000018001a3b0 f   spectrum.obj
 0001:000193f0       Cscl                       000000018001a3f0 f   spectrum.obj
 0001:00019900       Cmag                       000000018001a900 f   speechproc.obj
 0001:00019940       Cscl                       000000018001a940 f   speechproc.obj
 0001:0001a280       Cscl                       000000018001b280 f   spottone.obj
 0001:0001ad24       $LN21                      000000018001bd24     update.obj
 0001:00023490       gmean                      0000000180024490 f   update.obj
 0001:000234b0       dB2lin                     00000001800244b0 f   update.obj
 0001:000234e0       Cmplx                      00000001800244e0 f   update.obj
 0001:000234f0       Cadd                       00000001800244f0 f   update.obj
 0001:00023530       Cscl                       0000000180024530 f   update.obj
 0001:00023f98       $LN124                     0000000180024f98     window.obj
 0001:00023fd0       setup_defaults             0000000180024fd0 f   winmain.obj
 0001:00024150       setup_threading            0000000180025150 f   winmain.obj
 0001:000241d0       setup_system_audio         00000001800251d0 f   winmain.obj
 0001:00024340       setup_local_audio          0000000180025340 f   winmain.obj
 0001:00025350       reset_system_audio         0000000180026350 f   winmain.obj
 0001:000255c0       run_swch                   00000001800265c0 f   winmain.obj
 0001:00025890       run_play                   0000000180026890 f   winmain.obj
 0001:000258d0       run_pass                   00000001800268d0 f   winmain.obj
 0001:000258f0       run_mute                   00000001800268f0 f   winmain.obj
 0001:00025990       puthold                    0000000180026990 f   winmain.obj
 0001:00025a20       gethold                    0000000180026a20 f   winmain.obj
 0001:00025ac0       Cmplx                      0000000180026ac0 f   winmain.obj
 0001:00025ad0       Cmul                       0000000180026ad0 f   winmain.obj
 0001:00025b20       Cadd                       0000000180026b20 f   winmain.obj
 0001:00025b60       Cscl                       0000000180026b60 f   winmain.obj
 0001:000266b0       WSCLookup                  00000001800276b0 f   wscompand.obj
 0001:00026720       Cmag                       0000000180027720 f   wscompand.obj
 0001:00026760       Cscl                       0000000180027760 f   wscompand.obj
 0001:00027340       $$000000                   0000000180028340     MSVCRT:_chkstk_.obj
 0001:000273b0       $$000000                   00000001800283b0     MSVCRT:_svml_dcos2_dispatch_.obj
 0001:000273c0       $$000000                   00000001800283c0     MSVCRT:_svml_dsin2_dispatch_.obj
 0001:00027420       $$000000                   0000000180028420     MSVCRT:_svml_dcos2_sse2_.obj
 0001:00027420       __static_scalar_cos        0000000180028420 f   MSVCRT:_svml_dcos2_sse2_.obj
 0001:00027dc0       $$000000                   0000000180028dc0     MSVCRT:_svml_dsin2_sse2_.obj
 0001:00027dc0       __static_scalar_sin        0000000180028dc0 f   MSVCRT:_svml_dsin2_sse2_.obj
 0001:000287c0       $$000000                   00000001800297c0     MSVCRT:_guard_dispatch_.obj
 0001:000287e0       $$000000                   00000001800297e0     MSVCRT:_rfgfailure_.obj
 0001:00028892       ?fin$0@?0??dllmain_crt_process_attach@@YAHQEAUHINSTANCE__@@QEAX@Z@4HA 0000000180029892 f   MSVCRT:dll_dllmain.obj
 0001:000288a9       ?fin$0@?0??dllmain_crt_process_detach@@YAH_N@Z@4HA 00000001800298a9 f   MSVCRT:dll_dllmain.obj
 0001:000288c5       ?filt$0@?0??dllmain_dispatch@@YAHQEAUHINSTANCE__@@KQEAX@Z@4HA 00000001800298c5 f   MSVCRT:dll_dllmain.obj
 0001:000288fe       __scrt_is_nonwritable_in_current_image$filt$0 00000001800298fe f   MSVCRT:utility.obj
 0002:00000368       GS_ExceptionPointers       000000018002a368     MSVCRT:gs_report.obj
 0002:000003d0       EQ_Num_192000              000000018002a3d0     graphiceq.obj
 0002:000003e0       EQ_Den_96000               000000018002a3e0     graphiceq.obj
 0002:000003e8       EQ_Den_48000               000000018002a3e8     graphiceq.obj
 0002:000003f0       EQ_Num_48000               000000018002a3f0     graphiceq.obj
 0002:00000400       EQ_Den_192000              000000018002a400     graphiceq.obj
 0002:00000408       EQ_Num_96000               000000018002a408     graphiceq.obj
 0002:00000418       _white                     000000018002a418     splitfields.obj
 0002:00000420       pole                       000000018002a420     hilbert.obj
 0002:00000450       fast_atan_table            000000018002a450     fastrig1.obj
 0002:00000ed0       L_abs_mask                 000000018002aed0     MSVCRT:_svml_dsin2_dispatch_.obj
 0002:00000ee0       L_real_one                 000000018002aee0     MSVCRT:_svml_dsin2_dispatch_.obj
 0002:00000ef0       L_one_half                 000000018002aef0     MSVCRT:_svml_dsin2_dispatch_.obj
 0002:00000f00       L_two_to_neg_27            000000018002af00     MSVCRT:_svml_dsin2_dispatch_.obj
 0002:00000f10       L_pi_over_two              000000018002af10     MSVCRT:_svml_dsin2_dispatch_.obj
 0002:00001350       $unwind$_vfprintf_l        000000018002b350     banal.obj
 0002:00001360       $unwind$fprintf            000000018002b360     banal.obj
 0002:0000136c       $unwind$_vsnprintf_l       000000018002b36c     banal.obj
 0002:0000137c       $unwind$_vsnprintf         000000018002b37c     banal.obj
 0002:00001390       $unwind$_vsprintf_l        000000018002b390     banal.obj
 0002:000013a0       $unwind$sprintf            000000018002b3a0     banal.obj
 0002:000013ac       $unwind$_snprintf          000000018002b3ac     banal.obj
 0002:000013bc       $unwind$gettimeofday       000000018002b3bc     banal.obj
 0002:000013c8       $xdatasym                  000000018002b3c8     MSVCRT:_amdsecgs_.obj
 0002:000013cc       $unwind$?dllmain_crt_process_attach@@YAHQEAUHINSTANCE__@@QEAX@Z 000000018002b3cc     MSVCRT:dll_dllmain.obj
 0002:00001408       $unwind$?fin$0@?0??dllmain_crt_process_attach@@YAHQEAUHINSTANCE__@@QEAX@Z@4HA 000000018002b408     MSVCRT:dll_dllmain.obj
 0002:00001410       $unwind$?dllmain_crt_process_detach@@YAH_N@Z 000000018002b410     MSVCRT:dll_dllmain.obj
 0002:00001448       $unwind$?fin$0@?0??dllmain_crt_process_detach@@YAH_N@Z@4HA 000000018002b448     MSVCRT:dll_dllmain.obj
 0002:00001450       $unwind$?dllmain_crt_dispatch@@YAHQEAUHINSTANCE__@@KQEAX@Z 000000018002b450     MSVCRT:dll_dllmain.obj
 0002:00001458       $unwind$?dllmain_raw@@YAHQEAUHINSTANCE__@@KQEAX@Z 000000018002b458     MSVCRT:dll_dllmain.obj
 0002:0000146c       $unwind$?dllmain_dispatch@@YAHQEAUHINSTANCE__@@KQEAX@Z 000000018002b46c     MSVCRT:dll_dllmain.obj
 0002:00001494       $unwind$?filt$0@?0??dllmain_dispatch@@YAHQEAUHINSTANCE__@@KQEAX@Z@4HA 000000018002b494     MSVCRT:dll_dllmain.obj
 0002:0000149c       $unwind$_DllMainCRTStartup 000000018002b49c     MSVCRT:dll_dllmain.obj
 0002:000014ac       $unwind$__report_securityfailure 000000018002b4ac     MSVCRT:gs_report.obj
 0002:000014b4       $unwind$__report_securityfailureEx 000000018002b4b4     MSVCRT:gs_report.obj
 0002:000014bc       $unwind$__report_rangecheckfailure 000000018002b4bc     MSVCRT:gs_report.obj
 0002:000014c4       $unwind$__report_gsfailure 000000018002b4c4     MSVCRT:gs_report.obj
 0002:000014cc       $unwind$capture_current_context 000000018002b4cc     MSVCRT:gs_report.obj
 0002:000014d8       $unwind$capture_previous_context 000000018002b4d8     MSVCRT:gs_report.obj
 0002:000014e4       $unwind$__raise_securityfailure 000000018002b4e4     MSVCRT:gs_report.obj
 0002:000014ec       $unwind$__security_init_cookie 000000018002b4ec     MSVCRT:gs_support.obj
 0002:000014f8       $unwind$__get_entropy      000000018002b4f8     MSVCRT:gs_support.obj
 0002:00001500       $unwind$DllMain            000000018002b500     MSVCRT:dll_dllmain_stub.obj
 0002:00001508       $unwind$__scrt_initialize_default_local_stdio_options 000000018002b508     MSVCRT:default_local_stdio_options.obj
 0002:00001510       $unwind$atexit             000000018002b510     MSVCRT:utility.obj
 0002:00001518       $unwind$_onexit            000000018002b518     MSVCRT:utility.obj
 0002:00001520       $unwind$__scrt_is_nonwritable_in_current_image 000000018002b520     MSVCRT:utility.obj
 0002:00001540       $unwind$__scrt_is_nonwritable_in_current_image$filt$0 000000018002b540     MSVCRT:utility.obj
 0002:00001548       $unwind$__scrt_acquire_startup_lock 000000018002b548     MSVCRT:utility.obj
 0002:00001550       $unwind$__scrt_release_startup_lock 000000018002b550     MSVCRT:utility.obj
 0002:00001558       $unwind$__scrt_initialize_crt 000000018002b558     MSVCRT:utility.obj
 0002:00001560       $unwind$__scrt_uninitialize_crt 000000018002b560     MSVCRT:utility.obj
 0002:00001568       $unwind$__scrt_initialize_onexit_tables 000000018002b568     MSVCRT:utility.obj
 0002:00001574       $unwind$__scrt_dllmain_exception_filter 000000018002b574     MSVCRT:utility.obj
 0002:00001588       $unwind$__scrt_dllmain_before_initialize_c 000000018002b588     MSVCRT:utility.obj
 0002:00001590       $unwind$__scrt_dllmain_after_initialize_c 000000018002b590     MSVCRT:utility.obj
 0002:00001598       $unwind$__scrt_dllmain_uninitialize_c 000000018002b598     MSVCRT:utility.obj
 0002:000015a0       $unwind$__scrt_dllmain_uninitialize_critical 000000018002b5a0     MSVCRT:utility.obj
 0002:000015a8       $unwind$__scrt_dllmain_crt_thread_attach 000000018002b5a8     MSVCRT:utility.obj
 0002:000015b0       $unwind$__scrt_dllmain_crt_thread_detach 000000018002b5b0     MSVCRT:utility.obj
 0002:000015b8       $unwind$?configure_argv@__scrt_narrow_argv_policy@@SAHXZ 000000018002b5b8     MSVCRT:utility.obj
 0002:000015c0       $unwind$__scrt_get_show_window_mode 000000018002b5c0     MSVCRT:utility_desktop.obj
 0002:000015c8       $unwind$__scrt_is_managed_app 000000018002b5c8     MSVCRT:utility_desktop.obj
 0002:000015d0       $unwind$__scrt_fastfail    000000018002b5d0     MSVCRT:utility_desktop.obj
 0002:000015e0       $unwind$__scrt_unhandled_exception_filter 000000018002b5e0     MSVCRT:utility_desktop.obj
 0002:000015e8       $unwind$_RTC_Initialize    000000018002b5e8     MSVCRT:_initsect_.obj
 0002:000015f8       $unwind$_RTC_Terminate     000000018002b5f8     MSVCRT:_initsect_.obj
 0002:00001608       $unwind$__isa_available_init 000000018002b608     MSVCRT:_cpu_disp_.obj
 0002:00001620       $xdatasym                  000000018002b620     MSVCRT:_guard_dispatch_.obj
 0002:00001628       $xdatasym                  000000018002b628     MSVCRT:_rfgfailure_.obj
 0002:00001638       $unwind$delAMD             000000018002b638     am_demod.obj
 0002:00001640       $chain$0$delAMD            000000018002b640     am_demod.obj
 0002:00001654       $chain$1$delAMD            000000018002b654     am_demod.obj
 0002:00001664       $unwind$newAMD             000000018002b664     am_demod.obj
 0002:00001680       $unwind$AMDemod            000000018002b680     am_demod.obj
 0002:000016a0       $chain$0$AMDemod           000000018002b6a0     am_demod.obj
 0002:000016b4       $chain$1$AMDemod           000000018002b6b4     am_demod.obj
 0002:000016c4       $unwind$pll                000000018002b6c4     am_demod.obj
 0002:000016cc       $chain$1$pll               000000018002b6cc     am_demod.obj
 0002:000016e4       $chain$2$pll               000000018002b6e4     am_demod.obj
 0002:000016f8       $chain$3$pll               000000018002b6f8     am_demod.obj
 0002:00001708       $chain$4$pll               000000018002b708     am_demod.obj
 0002:00001718       $unwind$Cmag               000000018002b718     am_demod.obj
 0002:00001720       $unwind$least_common_mul   000000018002b720     banal.obj
 0002:00001730       $unwind$find_rcfile        000000018002b730     banal.obj
 0002:00001744       $unwind$hinterp_vec        000000018002b744     banal.obj
 0002:0000174c       $unwind$since              000000018002b74c     banal.obj
 0002:00001754       $unwind$fmt_tv             000000018002b754     banal.obj
 0002:0000175c       $unwind$now_tv             000000018002b75c     banal.obj
 0002:00001764       $unwind$fdsize             000000018002b764     banal.obj
 0002:00001774       $unwind$filesize           000000018002b774     banal.obj
 0002:00001784       $unwind$efreopen           000000018002b784     banal.obj
 0002:00001790       $unwind$efopen             000000018002b790     banal.obj
 0002:0000179c       $unwind$in_blocks          000000018002b79c     banal.obj
 0002:000017a4       $unwind$dump_CX            000000018002b7a4     bufvec.obj
 0002:000017bc       $unwind$dump_IMAG          000000018002b7bc     bufvec.obj
 0002:000017d4       $unwind$dump_REAL          000000018002b7d4     bufvec.obj
 0002:000017ec       $unwind$normalize_vec_COMPLEX 000000018002b7ec     bufvec.obj
 0002:000017f8       $chain$3$normalize_vec_COMPLEX 000000018002b7f8     bufvec.obj
 0002:00001818       $chain$5$normalize_vec_COMPLEX 000000018002b818     bufvec.obj
 0002:00001830       $chain$6$normalize_vec_COMPLEX 000000018002b830     bufvec.obj
 0002:00001840       $chain$7$normalize_vec_COMPLEX 000000018002b840     bufvec.obj
 0002:0000185c       $chain$8$normalize_vec_COMPLEX 000000018002b85c     bufvec.obj
 0002:0000186c       $unwind$delRLB             000000018002b86c     bufvec.obj
 0002:00001874       $unwind$newRLB             000000018002b874     bufvec.obj
 0002:00001884       $unwind$newvec_COMPLEX_16  000000018002b884     bufvec.obj
 0002:00001894       $unwind$newvec_COMPLEX     000000018002b894     bufvec.obj
 0002:000018a0       $unwind$newvec_IMAG        000000018002b8a0     bufvec.obj
 0002:000018ac       $unwind$newvec_REAL_16     000000018002b8ac     bufvec.obj
 0002:000018b8       $unwind$newvec_REAL        000000018002b8b8     bufvec.obj
 0002:000018c4       $unwind$safealloc16        000000018002b8c4     bufvec.obj
 0002:000018d4       $unwind$Cabs               000000018002b8d4     bufvec.obj
 0002:000018dc       $unwind$safealloc          000000018002b8dc     bufvec.obj
 0002:000018e4       $unwind$delCXB             000000018002b8e4     bufvec.obj
 0002:000018ec       $unwind$newCXB             000000018002b8ec     bufvec.obj
 0002:00001904       $unwind$correctIQ          000000018002b904     correctIQ.obj
 0002:0000190c       $chain$1$correctIQ         000000018002b90c     correctIQ.obj
 0002:00001924       $chain$8$correctIQ         000000018002b924     correctIQ.obj
 0002:00001950       $chain$9$correctIQ         000000018002b950     correctIQ.obj
 0002:00001960       $chain$10$correctIQ        000000018002b960     correctIQ.obj
 0002:00001970       $unwind$delCorrectIQ       000000018002b970     correctIQ.obj
 0002:00001978       $unwind$newCorrectIQ       000000018002b978     correctIQ.obj
 0002:0000198c       $unwind$delCWToneGen       000000018002b98c     cwtones.obj
 0002:00001994       $chain$1$delCWToneGen      000000018002b994     cwtones.obj
 0002:000019ac       $chain$2$delCWToneGen      000000018002b9ac     cwtones.obj
 0002:000019bc       $unwind$newCWToneGen       000000018002b9bc     cwtones.obj
 0002:000019d8       $unwind$CWToneOn           000000018002b9d8     cwtones.obj
 0002:000019e0       $unwind$CWTone             000000018002b9e0     cwtones.obj
 0002:000019f8       $chain$6$CWTone            000000018002b9f8     cwtones.obj
 0002:00001a24       $chain$7$CWTone            000000018002ba24     cwtones.obj
 0002:00001a38       $chain$8$CWTone            000000018002ba38     cwtones.obj
 0002:00001a48       $chain$9$CWTone            000000018002ba48     cwtones.obj
 0002:00001a64       $unwind$CWComplexOSC       000000018002ba64     cwtones.obj
 0002:00001a80       $chain$4$CWComplexOSC      000000018002ba80     cwtones.obj
 0002:00001aa4       $chain$5$CWComplexOSC      000000018002baa4     cwtones.obj
 0002:00001ab4       $unwind$delDCBlocker       000000018002bab4     dcblock.obj
 0002:00001abc       $chain$0$delDCBlocker      000000018002babc     dcblock.obj
 0002:00001ad0       $chain$1$delDCBlocker      000000018002bad0     dcblock.obj
 0002:00001ae0       $unwind$newDCBlocker       000000018002bae0     dcblock.obj
 0002:00001af0       $unwind$DCBlock            000000018002baf0     dcblock.obj
 0002:00001b14       $chain$2$DCBlock           000000018002bb14     dcblock.obj
 0002:00001b30       $chain$3$DCBlock           000000018002bb30     dcblock.obj
 0002:00001b40       $unwind$delDttSPAgc        000000018002bb40     dttspagc.obj
 0002:00001b4c       $unwind$DttSPAgc           000000018002bb4c     dttspagc.obj
 0002:00001b60       $chain$0$DttSPAgc          000000018002bb60     dttspagc.obj
 0002:00001b74       $chain$4$DttSPAgc          000000018002bb74     dttspagc.obj
 0002:00001b94       $chain$5$DttSPAgc          000000018002bb94     dttspagc.obj
 0002:00001ba4       $chain$6$DttSPAgc          000000018002bba4     dttspagc.obj
 0002:00001bb4       $unwind$newDttSPAgc        000000018002bbb4     dttspagc.obj
 0002:00001bcc       $chain$4$newDttSPAgc       000000018002bbcc     dttspagc.obj
 0002:00001bf0       $chain$5$newDttSPAgc       000000018002bbf0     dttspagc.obj
 0002:00001c08       $chain$6$newDttSPAgc       000000018002bc08     dttspagc.obj
 0002:00001c18       $unwind$Cmag               000000018002bc18     dttspagc.obj
 0002:00001c20       $unwind$newFIR_Bandstop_COMPLEX 000000018002bc20     filter.obj
 0002:00001c40       $chain$4$newFIR_Bandstop_COMPLEX 000000018002bc40     filter.obj
 0002:00001c64       $chain$6$newFIR_Bandstop_COMPLEX 000000018002bc64     filter.obj
 0002:00001c7c       $chain$9$newFIR_Bandstop_COMPLEX 000000018002bc7c     filter.obj
 0002:00001c98       $chain$10$newFIR_Bandstop_COMPLEX 000000018002bc98     filter.obj
 0002:00001ca8       $chain$11$newFIR_Bandstop_COMPLEX 000000018002bca8     filter.obj
 0002:00001cb8       $chain$12$newFIR_Bandstop_COMPLEX 000000018002bcb8     filter.obj
 0002:00001cc8       $unwind$newFIR_Bandstop_REAL 000000018002bcc8     filter.obj
 0002:00001ce4       $chain$5$newFIR_Bandstop_REAL 000000018002bce4     filter.obj
 0002:00001d0c       $chain$7$newFIR_Bandstop_REAL 000000018002bd0c     filter.obj
 0002:00001d24       $chain$10$newFIR_Bandstop_REAL 000000018002bd24     filter.obj
 0002:00001d40       $chain$11$newFIR_Bandstop_REAL 000000018002bd40     filter.obj
 0002:00001d50       $chain$12$newFIR_Bandstop_REAL 000000018002bd50     filter.obj
 0002:00001d60       $chain$13$newFIR_Bandstop_REAL 000000018002bd60     filter.obj
 0002:00001d70       $unwind$newFIR_Hilbert_COMPLEX 000000018002bd70     filter.obj
 0002:00001d8c       $chain$5$newFIR_Hilbert_COMPLEX 000000018002bd8c     filter.obj
 0002:00001db4       $chain$7$newFIR_Hilbert_COMPLEX 000000018002bdb4     filter.obj
 0002:00001dcc       $chain$8$newFIR_Hilbert_COMPLEX 000000018002bdcc     filter.obj
 0002:00001ddc       $chain$9$newFIR_Hilbert_COMPLEX 000000018002bddc     filter.obj
 0002:00001dec       $unwind$newFIR_Hilbert_REAL 000000018002bdec     filter.obj
 0002:00001e08       $chain$6$newFIR_Hilbert_REAL 000000018002be08     filter.obj
 0002:00001e34       $chain$7$newFIR_Hilbert_REAL 000000018002be34     filter.obj
 0002:00001e48       $chain$8$newFIR_Hilbert_REAL 000000018002be48     filter.obj
 0002:00001e58       $chain$9$newFIR_Hilbert_REAL 000000018002be58     filter.obj
 0002:00001e68       $unwind$newFIR_Highpass_COMPLEX 000000018002be68     filter.obj
 0002:00001e88       $chain$4$newFIR_Highpass_COMPLEX 000000018002be88     filter.obj
 0002:00001e9c       $chain$5$newFIR_Highpass_COMPLEX 000000018002be9c     filter.obj
 0002:00001eb0       $chain$10$newFIR_Highpass_COMPLEX 000000018002beb0     filter.obj
 0002:00001ed4       $chain$11$newFIR_Highpass_COMPLEX 000000018002bed4     filter.obj
 0002:00001ee4       $chain$12$newFIR_Highpass_COMPLEX 000000018002bee4     filter.obj
 0002:00001ef4       $unwind$newFIR_Highpass_REAL 000000018002bef4     filter.obj
 0002:00001f18       $chain$5$newFIR_Highpass_REAL 000000018002bf18     filter.obj
 0002:00001f2c       $chain$6$newFIR_Highpass_REAL 000000018002bf2c     filter.obj
 0002:00001f40       $chain$10$newFIR_Highpass_REAL 000000018002bf40     filter.obj
 0002:00001f60       $chain$11$newFIR_Highpass_REAL 000000018002bf60     filter.obj
 0002:00001f70       $chain$12$newFIR_Highpass_REAL 000000018002bf70     filter.obj
 0002:00001f80       $unwind$newFIR_Bandpass_COMPLEX 000000018002bf80     filter.obj
 0002:00001f9c       $chain$5$newFIR_Bandpass_COMPLEX 000000018002bf9c     filter.obj
 0002:00001fc4       $chain$7$newFIR_Bandpass_COMPLEX 000000018002bfc4     filter.obj
 0002:00001fdc       $chain$8$newFIR_Bandpass_COMPLEX 000000018002bfdc     filter.obj
 0002:00001fec       $chain$9$newFIR_Bandpass_COMPLEX 000000018002bfec     filter.obj
 0002:00001ffc       $unwind$newFIR_Bandpass_REAL 000000018002bffc     filter.obj
 0002:00002014       $chain$6$newFIR_Bandpass_REAL 000000018002c014     filter.obj
 0002:00002040       $chain$8$newFIR_Bandpass_REAL 000000018002c040     filter.obj
 0002:00002058       $chain$9$newFIR_Bandpass_REAL 000000018002c058     filter.obj
 0002:00002068       $chain$10$newFIR_Bandpass_REAL 000000018002c068     filter.obj
 0002:00002078       $unwind$newFIR_Lowpass_COMPLEX 000000018002c078     filter.obj
 0002:00002098       $chain$9$newFIR_Lowpass_COMPLEX 000000018002c098     filter.obj
 0002:000020bc       $chain$10$newFIR_Lowpass_COMPLEX 000000018002c0bc     filter.obj
 0002:000020cc       $unwind$newFIR_Lowpass_REAL 000000018002c0cc     filter.obj
 0002:000020ec       $chain$8$newFIR_Lowpass_REAL 000000018002c0ec     filter.obj
 0002:0000210c       $chain$9$newFIR_Lowpass_REAL 000000018002c10c     filter.obj
 0002:0000211c       $unwind$delFIR_COMPLEX     000000018002c11c     filter.obj
 0002:00002124       $unwind$delFIR_REAL        000000018002c124     filter.obj
 0002:0000212c       $unwind$newFIR_COMPLEX     000000018002c12c     filter.obj
 0002:0000213c       $unwind$newFIR_REAL        000000018002c13c     filter.obj
 0002:0000214c       $unwind$delFMD             000000018002c14c     fm_demod.obj
 0002:00002154       $chain$0$delFMD            000000018002c154     fm_demod.obj
 0002:00002168       $chain$1$delFMD            000000018002c168     fm_demod.obj
 0002:0000217c       $chain$2$delFMD            000000018002c17c     fm_demod.obj
 0002:0000218c       $chain$3$delFMD            000000018002c18c     fm_demod.obj
 0002:0000219c       $unwind$FMDreload          000000018002c19c     fm_demod.obj
 0002:000021a4       $unwind$newFMD             000000018002c1a4     fm_demod.obj
 0002:000021b4       $unwind$FMDemod            000000018002c1b4     fm_demod.obj
 0002:000021c0       $chain$0$FMDemod           000000018002c1c0     fm_demod.obj
 0002:000021d4       $chain$7$FMDemod           000000018002c1d4     fm_demod.obj
 0002:00002200       $chain$8$FMDemod           000000018002c200     fm_demod.obj
 0002:00002210       $chain$9$FMDemod           000000018002c210     fm_demod.obj
 0002:00002220       $unwind$Cargument          000000018002c220     fm_demod.obj
 0002:00002228       $unwind$Cmodulus           000000018002c228     fm_demod.obj
 0002:00002230       $unwind$Cdiv               000000018002c230     fm_demod.obj
 0002:0000223c       $unwind$ProcessPhaseError  000000018002c23c     fm_stereo_decoder.obj
 0002:00002244       $unwind$ProcessPll         000000018002c244     fm_stereo_decoder.obj
 0002:00002258       $unwind$newStereoPll       000000018002c258     fm_stereo_decoder.obj
 0002:00002264       $unwind$FMStereoDetected   000000018002c264     fm_stereo_decoder.obj
 0002:00002274       $unwind$delStereDecoder    000000018002c274     fm_stereo_decoder.obj
 0002:0000227c       $chain$0$delStereDecoder   000000018002c27c     fm_stereo_decoder.obj
 0002:00002290       $chain$1$delStereDecoder   000000018002c290     fm_stereo_decoder.obj
 0002:000022a0       $unwind$ProcessStereo      000000018002c2a0     fm_stereo_decoder.obj
 0002:000022b8       $chain$11$ProcessStereo    000000018002c2b8     fm_stereo_decoder.obj
 0002:000022f8       $chain$12$ProcessStereo    000000018002c2f8     fm_stereo_decoder.obj
 0002:00002308       $unwind$newStereoDecoder   000000018002c308     fm_stereo_decoder.obj
 0002:0000231c       $chain$4$newStereoDecoder  000000018002c31c     fm_stereo_decoder.obj
 0002:00002340       $chain$7$newStereoDecoder  000000018002c340     fm_stereo_decoder.obj
 0002:0000235c       $unwind$graphiceq          000000018002c35c     graphiceq.obj
 0002:00002370       $chain$0$graphiceq         000000018002c370     graphiceq.obj
 0002:00002384       $chain$1$graphiceq         000000018002c384     graphiceq.obj
 0002:00002394       $chain$8$graphiceq         000000018002c394     graphiceq.obj
 0002:000023c0       $chain$9$graphiceq         000000018002c3c0     graphiceq.obj
 0002:000023d0       $unwind$delEQ              000000018002c3d0     graphiceq.obj
 0002:000023d8       $chain$0$delEQ             000000018002c3d8     graphiceq.obj
 0002:000023ec       $chain$1$delEQ             000000018002c3ec     graphiceq.obj
 0002:000023fc       $unwind$new_EQ             000000018002c3fc     graphiceq.obj
 0002:00002410       $chain$0$new_EQ            000000018002c410     graphiceq.obj
 0002:00002424       $chain$1$new_EQ            000000018002c424     graphiceq.obj
 0002:00002434       $unwind$hilsim_transform   000000018002c434     hilbert.obj
 0002:0000243c       $chain$2$hilsim_transform  000000018002c43c     hilbert.obj
 0002:00002458       $chain$3$hilsim_transform  000000018002c458     hilbert.obj
 0002:00002468       $unwind$delHilsim          000000018002c468     hilbert.obj
 0002:00002470       $chain$0$delHilsim         000000018002c470     hilbert.obj
 0002:00002484       $chain$1$delHilsim         000000018002c484     hilbert.obj
 0002:00002494       $unwind$delHilbert         000000018002c494     hilbert.obj
 0002:0000249c       $chain$0$delHilbert        000000018002c49c     hilbert.obj
 0002:000024b0       $chain$1$delHilbert        000000018002c4b0     hilbert.obj
 0002:000024c0       $unwind$newHilbertsim      000000018002c4c0     hilbert.obj
 0002:000024d0       $unwind$newHilbert         000000018002c4d0     hilbert.obj
 0002:000024ec       $chain$3$newHilbert        000000018002c4ec     hilbert.obj
 0002:00002504       $chain$4$newHilbert        000000018002c504     hilbert.obj
 0002:00002518       $chain$5$newHilbert        000000018002c518     hilbert.obj
 0002:00002528       $unwind$IirFilterInit      000000018002c528     IirFilter.obj
 0002:00002540       $unwind$ProcessIirFilter   000000018002c540     IirFilter.obj
 0002:0000254c       $unwind$ISOband_get_high   000000018002c54c     isoband.obj
 0002:00002554       $unwind$ISOband_get_low    000000018002c554     isoband.obj
 0002:0000255c       $unwind$ISOband_get_exact  000000018002c55c     isoband.obj
 0002:00002564       $unwind$ISOband_get_nominal 000000018002c564     isoband.obj
 0002:0000256c       $unwind$ISOband_get_info   000000018002c56c     isoband.obj
 0002:00002574       $unwind$TimerRead          000000018002c574     keyd.obj
 0002:0000257c       $unwind$SetKeyerSampleRate 000000018002c57c     keyd.obj
 0002:00002588       $unwind$DeleteKeyer        000000018002c588     keyd.obj
 0002:00002594       $unwind$StopKeyer          000000018002c594     keyd.obj
 0002:0000259c       $unwind$StartKeyer         000000018002c59c     keyd.obj
 0002:000025a4       $unwind$NewCriticalSection 000000018002c5a4     keyd.obj
 0002:000025ac       $unwind$NewKeyer           000000018002c5ac     keyd.obj
 0002:000025c0       $unwind$SetKeyerRevPdl     000000018002c5c0     keyd.obj
 0002:000025c8       $unwind$SetKeyerDeBounce   000000018002c5c8     keyd.obj
 0002:000025d0       $unwind$SetKeyerMode       000000018002c5d0     keyd.obj
 0002:000025d8       $unwind$SetKeyerFall       000000018002c5d8     keyd.obj
 0002:000025e4       $unwind$SetKeyerRise       000000018002c5e4     keyd.obj
 0002:000025f0       $unwind$SetKeyerGain       000000018002c5f0     keyd.obj
 0002:000025fc       $unwind$SetKeyerHarmonicRemove 000000018002c5fc     keyd.obj
 0002:00002610       $unwind$SetMonitorFreq     000000018002c610     keyd.obj
 0002:0000261c       $unwind$SetKeyerFreq       000000018002c61c     keyd.obj
 0002:00002628       $unwind$SetKeyerIambic     000000018002c628     keyd.obj
 0002:00002630       $unwind$SetKeyerWeight     000000018002c630     keyd.obj
 0002:00002638       $unwind$SetKeyerSpeed      000000018002c638     keyd.obj
 0002:00002644       $unwind$SetKeyerBug        000000018002c644     keyd.obj
 0002:0000264c       $unwind$key_thread_process 000000018002c64c     keyd.obj
 0002:00002654       $unwind$read_key           000000018002c654     keyd.obj
 0002:0000265c       $unwind$monitor_thread_keyd 000000018002c65c     keyd.obj
 0002:00002664       $unwind$sound_thread_keyd  000000018002c664     keyd.obj
 0002:00002674       $unwind$send_monitor_silence 000000018002c674     keyd.obj
 0002:00002680       $chain$0$send_monitor_silence 000000018002c680     keyd.obj
 0002:00002694       $chain$1$send_monitor_silence 000000018002c694     keyd.obj
 0002:000026a4       $unwind$send_silence       000000018002c6a4     keyd.obj
 0002:000026b0       $chain$0$send_silence      000000018002c6b0     keyd.obj
 0002:000026c4       $chain$1$send_silence      000000018002c6c4     keyd.obj
 0002:000026d4       $unwind$send_monitor_tone  000000018002c6d4     keyd.obj
 0002:000026e0       $chain$1$send_monitor_tone 000000018002c6e0     keyd.obj
 0002:000026f8       $chain$2$send_monitor_tone 000000018002c6f8     keyd.obj
 0002:00002708       $unwind$send_tone          000000018002c708     keyd.obj
 0002:00002714       $chain$0$send_tone         000000018002c714     keyd.obj
 0002:00002728       $chain$1$send_tone         000000018002c728     keyd.obj
 0002:00002738       $unwind$CWtoneExchange     000000018002c738     keyd.obj
 0002:0000274c       $chain$0$CWtoneExchange    000000018002c74c     keyd.obj
 0002:00002760       $chain$1$CWtoneExchange    000000018002c760     keyd.obj
 0002:00002770       $unwind$CWMonitorExchange  000000018002c770     keyd.obj
 0002:00002784       $chain$0$CWMonitorExchange 000000018002c784     keyd.obj
 0002:00002798       $chain$1$CWMonitorExchange 000000018002c798     keyd.obj
 0002:000027a8       $unwind$klogic             000000018002c7a8     keyer.obj
 0002:000027b0       $unwind$newKeyerLogic      000000018002c7b0     keyer.obj
 0002:000027b8       $unwind$newKeyerState      000000018002c7b8     keyer.obj
 0002:000027c0       $unwind$read_iambic_key    000000018002c7c0     keyerio.obj
 0002:000027cc       $chain$0$read_iambic_key   000000018002c7cc     keyerio.obj
 0002:000027e0       $chain$1$read_iambic_key   000000018002c7e0     keyerio.obj
 0002:000027f0       $unwind$read_straight_key  000000018002c7f0     keyerio.obj
 0002:000027f8       $chain$0$read_straight_key 000000018002c7f8     keyerio.obj
 0002:0000280c       $chain$1$read_straight_key 000000018002c80c     keyerio.obj
 0002:0000281c       $unwind$blms_adapt         000000018002c81c     lmadf.obj
 0002:00002834       $unwind$new_blms           000000018002c834     lmadf.obj
 0002:0000284c       $unwind$del_blms           000000018002c84c     lmadf.obj
 0002:00002854       $unwind$lmsr_adapt_n       000000018002c854     lmadf.obj
 0002:00002860       $chain$5$lmsr_adapt_n      000000018002c860     lmadf.obj
 0002:00002888       $chain$6$lmsr_adapt_n      000000018002c888     lmadf.obj
 0002:00002898       $unwind$lmsr_adapt_i       000000018002c898     lmadf.obj
 0002:000028a4       $chain$5$lmsr_adapt_i      000000018002c8a4     lmadf.obj
 0002:000028cc       $chain$6$lmsr_adapt_i      000000018002c8cc     lmadf.obj
 0002:000028dc       $unwind$del_lmsr           000000018002c8dc     lmadf.obj
 0002:000028e4       $chain$0$del_lmsr          000000018002c8e4     lmadf.obj
 0002:000028f8       $chain$1$del_lmsr          000000018002c8f8     lmadf.obj
 0002:00002908       $unwind$new_lmsr           000000018002c908     lmadf.obj
 0002:00002920       $unwind$SDROMnoiseblanker  000000018002c920     noiseblanker.obj
 0002:00002930       $chain$6$SDROMnoiseblanker 000000018002c930     noiseblanker.obj
 0002:0000295c       $chain$7$SDROMnoiseblanker 000000018002c95c     noiseblanker.obj
 0002:0000296c       $unwind$noiseblanker       000000018002c96c     noiseblanker.obj
 0002:00002978       $chain$4$noiseblanker      000000018002c978     noiseblanker.obj
 0002:0000299c       $chain$5$noiseblanker      000000018002c99c     noiseblanker.obj
 0002:000029ac       $unwind$new_noiseblanker   000000018002c9ac     noiseblanker.obj
 0002:000029b8       $unwind$Cmag               000000018002c9b8     noiseblanker.obj
 0002:000029c0       $unwind$RealOSC            000000018002c9c0     oscillator.obj
 0002:000029cc       $chain$3$RealOSC           000000018002c9cc     oscillator.obj
 0002:000029ec       $chain$4$RealOSC           000000018002c9ec     oscillator.obj
 0002:000029fc       $unwind$ComplexOSC         000000018002c9fc     oscillator.obj
 0002:00002a08       $chain$0$ComplexOSC        000000018002ca08     oscillator.obj
 0002:00002a1c       $chain$1$ComplexOSC        000000018002ca1c     oscillator.obj
 0002:00002a2c       $unwind$newOSC             000000018002ca2c     oscillator.obj
 0002:00002a44       $unwind$delOSC             000000018002ca44     oscillator.obj
 0002:00002a50       $unwind$reset_OvSv         000000018002ca50     ovsv.obj
 0002:00002a58       $unwind$filter_CTCSS       000000018002ca58     ovsv.obj
 0002:00002a70       $unwind$filter_OvSv        000000018002ca70     ovsv.obj
 0002:00002a88       $unwind$delFiltOvSv        000000018002ca88     ovsv.obj
 0002:00002a90       $unwind$newFiltOvSv        000000018002ca90     ovsv.obj
 0002:00002aa8       $chain$3$newFiltOvSv       000000018002caa8     ovsv.obj
 0002:00002abc       $chain$4$newFiltOvSv       000000018002cabc     ovsv.obj
 0002:00002ad0       $unwind$PolyPhaseFIR       000000018002cad0     resample.obj
 0002:00002ad8       $chain$3$PolyPhaseFIR      000000018002cad8     resample.obj
 0002:00002af8       $chain$4$PolyPhaseFIR      000000018002caf8     resample.obj
 0002:00002b08       $unwind$delPolyPhaseFIR    000000018002cb08     resample.obj
 0002:00002b10       $chain$0$delPolyPhaseFIR   000000018002cb10     resample.obj
 0002:00002b24       $chain$1$delPolyPhaseFIR   000000018002cb24     resample.obj
 0002:00002b34       $unwind$newPolyPhaseFIR    000000018002cb34     resample.obj
 0002:00002b4c       $unwind$PolyPhaseFIRF      000000018002cb4c     resampleF.obj
 0002:00002b54       $chain$3$PolyPhaseFIRF     000000018002cb54     resampleF.obj
 0002:00002b74       $chain$4$PolyPhaseFIRF     000000018002cb74     resampleF.obj
 0002:00002b84       $unwind$delPolyPhaseFIRF   000000018002cb84     resampleF.obj
 0002:00002b8c       $chain$0$delPolyPhaseFIRF  000000018002cb8c     resampleF.obj
 0002:00002ba0       $chain$1$delPolyPhaseFIRF  000000018002cba0     resampleF.obj
 0002:00002bb0       $unwind$newPolyPhaseFIRF   000000018002cbb0     resampleF.obj
 0002:00002bc8       $unwind$ringb_write        000000018002cbc8     ringb.obj
 0002:00002bd4       $unwind$ringb_peek         000000018002cbd4     ringb.obj
 0002:00002be0       $unwind$ringb_read         000000018002cbe0     ringb.obj
 0002:00002bec       $unwind$ringb_restart      000000018002cbec     ringb.obj
 0002:00002bf8       $unwind$ringb_float_clear  000000018002cbf8     ringb.obj
 0002:00002c04       $chain$0$ringb_float_clear 000000018002cc04     ringb.obj
 0002:00002c18       $chain$1$ringb_float_clear 000000018002cc18     ringb.obj
 0002:00002c28       $unwind$ringb_clear        000000018002cc28     ringb.obj
 0002:00002c34       $chain$0$ringb_clear       000000018002cc34     ringb.obj
 0002:00002c48       $chain$1$ringb_clear       000000018002cc48     ringb.obj
 0002:00002c58       $unwind$ringb_free         000000018002cc58     ringb.obj
 0002:00002c60       $unwind$ringb_create       000000018002cc60     ringb.obj
 0002:00002c70       $unwind$ringb_float_free   000000018002cc70     ringb.obj
 0002:00002c78       $unwind$ringb_float_create 000000018002cc78     ringb.obj
 0002:00002c88       $unwind$ringb_float_write  000000018002cc88     ringb.obj
 0002:00002c94       $unwind$ringb_float_read   000000018002cc94     ringb.obj
 0002:00002ca0       $unwind$process_samples    000000018002cca0     sdr.obj
 0002:00002cb8       $unwind$do_tx              000000018002ccb8     sdr.obj
 0002:00002ccc       $chain$2$do_tx             000000018002cccc     sdr.obj
 0002:00002ce8       $chain$3$do_tx             000000018002cce8     sdr.obj
 0002:00002cf8       $unwind$do_tx_FM           000000018002ccf8     sdr.obj
 0002:00002d08       $chain$3$do_tx_FM          000000018002cd08     sdr.obj
 0002:00002d28       $chain$4$do_tx_FM          000000018002cd28     sdr.obj
 0002:00002d38       $unwind$do_tx_AM           000000018002cd38     sdr.obj
 0002:00002d40       $unwind$do_tx_post         000000018002cd40     sdr.obj
 0002:00002d50       $chain$0$do_tx_post        000000018002cd50     sdr.obj
 0002:00002d64       $chain$1$do_tx_post        000000018002cd64     sdr.obj
 0002:00002d78       $chain$2$do_tx_post        000000018002cd78     sdr.obj
 0002:00002d88       $chain$3$do_tx_post        000000018002cd88     sdr.obj
 0002:00002d98       $unwind$do_tx_pre          000000018002cd98     sdr.obj
 0002:00002dac       $chain$0$do_tx_pre         000000018002cdac     sdr.obj
 0002:00002dc0       $chain$1$do_tx_pre         000000018002cdc0     sdr.obj
 0002:00002dd0       $unwind$do_tx_meter        000000018002cdd0     sdr.obj
 0002:00002df8       $unwind$do_rx              000000018002cdf8     sdr.obj
 0002:00002e04       $unwind$do_rx_post         000000018002ce04     sdr.obj
 0002:00002e20       $unwind$do_rx_pre          000000018002ce20     sdr.obj
 0002:00002e30       $chain$2$do_rx_pre         000000018002ce30     sdr.obj
 0002:00002e4c       $chain$5$do_rx_pre         000000018002ce4c     sdr.obj
 0002:00002e68       $chain$9$do_rx_pre         000000018002ce68     sdr.obj
 0002:00002e88       $chain$10$do_rx_pre        000000018002ce88     sdr.obj
 0002:00002e98       $chain$11$do_rx_pre        000000018002ce98     sdr.obj
 0002:00002ea8       $chain$12$do_rx_pre        000000018002cea8     sdr.obj
 0002:00002eb8       $unwind$no_tx_squelch      000000018002ceb8     sdr.obj
 0002:00002ec0       $chain$0$no_tx_squelch     000000018002cec0     sdr.obj
 0002:00002ed4       $chain$1$no_tx_squelch     000000018002ced4     sdr.obj
 0002:00002ee4       $unwind$no_squelch         000000018002cee4     sdr.obj
 0002:00002eec       $chain$0$no_squelch        000000018002ceec     sdr.obj
 0002:00002f00       $chain$1$no_squelch        000000018002cf00     sdr.obj
 0002:00002f10       $unwind$do_tx_squelch      000000018002cf10     sdr.obj
 0002:00002f20       $unwind$do_squelch         000000018002cf20     sdr.obj
 0002:00002f2c       $chain$0$do_squelch        000000018002cf2c     sdr.obj
 0002:00002f40       $chain$1$do_squelch        000000018002cf40     sdr.obj
 0002:00002f50       $unwind$should_do_tx_squelch 000000018002cf50     sdr.obj
 0002:00002f5c       $unwind$should_do_rx_squelch 000000018002cf5c     sdr.obj
 0002:00002f68       $unwind$do_tx_spectrum     000000018002cf68     sdr.obj
 0002:00002f78       $unwind$do_rx_scope_spectrum 000000018002cf78     sdr.obj
 0002:00002f88       $unwind$do_rx_spectrum     000000018002cf88     sdr.obj
 0002:00002f98       $unwind$do_rx_meter        000000018002cf98     sdr.obj
 0002:00002fac       $chain$2$do_rx_meter       000000018002cfac     sdr.obj
 0002:00002fc8       $chain$3$do_rx_meter       000000018002cfc8     sdr.obj
 0002:00002fd8       $unwind$CXBpeak            000000018002cfd8     sdr.obj
 0002:00002ff4       $unwind$destroy_workspace  000000018002cff4     sdr.obj
 0002:0000300c       $chain$0$destroy_workspace 000000018002d00c     sdr.obj
 0002:00003020       $chain$1$destroy_workspace 000000018002d020     sdr.obj
 0002:00003030       $unwind$setup_workspace    000000018002d030     sdr.obj
 0002:00003044       $chain$0$setup_workspace   000000018002d044     sdr.obj
 0002:00003058       $chain$1$setup_workspace   000000018002d058     sdr.obj
 0002:00003068       $unwind$setup_tx           000000018002d068     sdr.obj
 0002:00003084       $chain$2$setup_tx          000000018002d084     sdr.obj
 0002:000030a0       $chain$3$setup_tx          000000018002d0a0     sdr.obj
 0002:000030b4       $chain$4$setup_tx          000000018002d0b4     sdr.obj
 0002:000030c4       $unwind$setup_rx           000000018002d0c4     sdr.obj
 0002:000030e4       $chain$1$setup_rx          000000018002d0e4     sdr.obj
 0002:000030fc       $chain$2$setup_rx          000000018002d0fc     sdr.obj
 0002:00003110       $unwind$setup_all          000000018002d110     sdr.obj
 0002:00003134       $unwind$reset_spectrum     000000018002d134     sdr.obj
 0002:00003148       $unwind$Cmag               000000018002d148     sdr.obj
 0002:00003150       $unwind$CaddA              000000018002d150     sdr.obj
 0002:00003158       $unwind$compute_spectrum   000000018002d158     spectrum.obj
 0002:0000316c       $chain$1$compute_spectrum  000000018002d16c     spectrum.obj
 0002:00003184       $chain$2$compute_spectrum  000000018002d184     spectrum.obj
 0002:00003194       $chain$4$compute_spectrum  000000018002d194     spectrum.obj
 0002:000031ac       $chain$5$compute_spectrum  000000018002d1ac     spectrum.obj
 0002:000031bc       $unwind$compute_complex_spectrum 000000018002d1bc     spectrum.obj
 0002:000031c8       $unwind$snap_scope         000000018002d1c8     spectrum.obj
 0002:000031d0       $chain$0$snap_scope        000000018002d1d0     spectrum.obj
 0002:000031e4       $chain$1$snap_scope        000000018002d1e4     spectrum.obj
 0002:000031f4       $unwind$snap_spectrum      000000018002d1f4     spectrum.obj
 0002:00003200       $chain$1$snap_spectrum     000000018002d200     spectrum.obj
 0002:00003218       $chain$2$snap_spectrum     000000018002d218     spectrum.obj
 0002:00003228       $unwind$Cmag               000000018002d228     spectrum.obj
 0002:00003230       $unwind$init_spectrum      000000018002d230     spectrum.obj
 0002:00003240       $unwind$reinit_spectrum    000000018002d240     spectrum.obj
 0002:00003248       $unwind$finish_spectrum    000000018002d248     spectrum.obj
 0002:00003250       $chain$0$finish_spectrum   000000018002d250     spectrum.obj
 0002:00003264       $chain$1$finish_spectrum   000000018002d264     spectrum.obj
 0002:00003274       $unwind$Cmag               000000018002d274     speechproc.obj
 0002:0000327c       $unwind$delSpeechProc      000000018002d27c     speechproc.obj
 0002:00003284       $chain$0$delSpeechProc     000000018002d284     speechproc.obj
 0002:00003298       $chain$1$delSpeechProc     000000018002d298     speechproc.obj
 0002:000032a8       $unwind$SpeechProcessor    000000018002d2a8     speechproc.obj
 0002:000032bc       $chain$2$SpeechProcessor   000000018002d2bc     speechproc.obj
 0002:000032d8       $chain$3$SpeechProcessor   000000018002d2d8     speechproc.obj
 0002:000032e8       $unwind$newSpeechProc      000000018002d2e8     speechproc.obj
 0002:00003300       $unwind$split              000000018002d300     splitfields.obj
 0002:0000330c       $chain$0$split             000000018002d30c     splitfields.obj
 0002:00003320       $chain$1$split             000000018002d320     splitfields.obj
 0002:00003330       $unwind$spliton            000000018002d330     splitfields.obj
 0002:0000333c       $chain$0$spliton           000000018002d33c     splitfields.obj
 0002:00003350       $chain$1$spliton           000000018002d350     splitfields.obj
 0002:00003360       $unwind$splitonto          000000018002d360     splitfields.obj
 0002:0000336c       $chain$0$splitonto         000000018002d36c     splitfields.obj
 0002:00003380       $chain$1$splitonto         000000018002d380     splitfields.obj
 0002:00003390       $unwind$newSPLIT           000000018002d390     splitfields.obj
 0002:00003398       $unwind$SpotToneOn         000000018002d398     spottone.obj
 0002:000033a4       $unwind$SpotTone           000000018002d3a4     spottone.obj
 0002:000033b4       $chain$3$SpotTone          000000018002d3b4     spottone.obj
 0002:000033d4       $chain$4$SpotTone          000000018002d3d4     spottone.obj
 0002:000033e4       $unwind$delSpotToneGen     000000018002d3e4     spottone.obj
 0002:000033ec       $chain$1$delSpotToneGen    000000018002d3ec     spottone.obj
 0002:00003404       $chain$2$delSpotToneGen    000000018002d404     spottone.obj
 0002:00003414       $unwind$newSpotToneGen     000000018002d414     spottone.obj
 0002:0000342c       $unwind$EnableCTCSS        000000018002d42c     update.obj
 0002:00003440       $unwind$SetCTCSSOscAmplitude 000000018002d440     update.obj
 0002:00003454       $unwind$SetCTCSSOscFreq    000000018002d454     update.obj
 0002:00003468       $chain$0$SetCTCSSOscFreq   000000018002d468     update.obj
 0002:0000347c       $chain$1$SetCTCSSOscFreq   000000018002d47c     update.obj
 0002:0000348c       $unwind$SetDiversityGain   000000018002d48c     update.obj
 0002:00003498       $unwind$SetDiversityScalar 000000018002d498     update.obj
 0002:000034a8       $unwind$SetDiversity       000000018002d4a8     update.obj
 0002:000034b0       $unwind$SetRXPan           000000018002d4b0     update.obj
 0002:000034d0       $unwind$SetSubRXSt         000000018002d4d0     update.obj
 0002:000034e0       $chain$0$SetSubRXSt        000000018002d4e0     update.obj
 0002:000034f4       $chain$1$SetSubRXSt        000000018002d4f4     update.obj
 0002:00003508       $chain$2$SetSubRXSt        000000018002d508     update.obj
 0002:00003518       $chain$4$SetSubRXSt        000000018002d518     update.obj
 0002:00003530       $chain$5$SetSubRXSt        000000018002d530     update.obj
 0002:00003540       $unwind$EnableResamplerF   000000018002d540     update.obj
 0002:00003558       $unwind$SetResamplerF      000000018002d558     update.obj
 0002:00003560       $unwind$DelPolyPhaseFIRF   000000018002d560     update.obj
 0002:00003568       $chain$0$DelPolyPhaseFIRF  000000018002d568     update.obj
 0002:0000357c       $chain$1$DelPolyPhaseFIRF  000000018002d57c     update.obj
 0002:0000358c       $unwind$DoResamplerF       000000018002d58c     update.obj
 0002:00003598       $unwind$NewResamplerF_LimeSDR 000000018002d598     update.obj
 0002:000035a0       $unwind$NewResamplerF      000000018002d5a0     update.obj
 0002:000035a8       $unwind$DelPolyPhaseFIR    000000018002d5a8     update.obj
 0002:000035b0       $chain$0$DelPolyPhaseFIR   000000018002d5b0     update.obj
 0002:000035c4       $chain$1$DelPolyPhaseFIR   000000018002d5c4     update.obj
 0002:000035d4       $unwind$DoResampler        000000018002d5d4     update.obj
 0002:000035e0       $unwind$NewResampler       000000018002d5e0     update.obj
 0002:000035e8       $unwind$SetRingBufferOffset 000000018002d5e8     update.obj
 0002:000035fc       $unwind$Process_Scope      000000018002d5fc     update.obj
 0002:00003608       $chain$1$Process_Scope     000000018002d608     update.obj
 0002:00003620       $chain$2$Process_Scope     000000018002d620     update.obj
 0002:00003634       $chain$3$Process_Scope     000000018002d634     update.obj
 0002:00003644       $chain$4$Process_Scope     000000018002d644     update.obj
 0002:00003658       $unwind$Process_Phase      000000018002d658     update.obj
 0002:00003664       $chain$2$Process_Phase     000000018002d664     update.obj
 0002:00003680       $chain$3$Process_Phase     000000018002d680     update.obj
 0002:00003698       $unwind$Process_Panadapter 000000018002d698     update.obj
 0002:000036ac       $unwind$Process_Spectrum   000000018002d6ac     update.obj
 0002:000036c0       $unwind$Process_ComplexSpectrum 000000018002d6c0     update.obj
 0002:000036d4       $unwind$SetAudioSize       000000018002d6d4     update.obj
 0002:000036e8       $unwind$SetDSPBuflen       000000018002d6e8     update.obj
 0002:00003704       $unwind$FlushAllBufs       000000018002d704     update.obj
 0002:0000371c       $unwind$SetTRX             000000018002d71c     update.obj
 0002:00003730       $unwind$SetSquelchState    000000018002d730     update.obj
 0002:00003748       $unwind$SetSquelchVal      000000018002d748     update.obj
 0002:00003760       $unwind$SetTXAGCFFCompression 000000018002d760     update.obj
 0002:00003774       $unwind$SetTXAGCFF         000000018002d774     update.obj
 0002:00003788       $unwind$SetGrphRXEQcmd     000000018002d788     update.obj
 0002:000037a0       $unwind$SetGrphRXEQ10      000000018002d7a0     update.obj
 0002:000037ac       $chain$13$SetGrphRXEQ10    000000018002d7ac     update.obj
 0002:000037f4       $chain$15$SetGrphRXEQ10    000000018002d7f4     update.obj
 0002:0000383c       $unwind$SetGrphRXEQ        000000018002d83c     update.obj
 0002:00003858       $chain$2$SetGrphRXEQ       000000018002d858     update.obj
 0002:00003870       $chain$5$SetGrphRXEQ       000000018002d870     update.obj
 0002:0000388c       $chain$6$SetGrphRXEQ       000000018002d88c     update.obj
 0002:000038a0       $chain$7$SetGrphRXEQ       000000018002d8a0     update.obj
 0002:000038b4       $chain$10$SetGrphRXEQ      000000018002d8b4     update.obj
 0002:000038d0       $chain$11$SetGrphRXEQ      000000018002d8d0     update.obj
 0002:000038e8       $chain$12$SetGrphRXEQ      000000018002d8e8     update.obj
 0002:000038fc       $chain$13$SetGrphRXEQ      000000018002d8fc     update.obj
 0002:0000390c       $chain$14$SetGrphRXEQ      000000018002d90c     update.obj
 0002:0000391c       $chain$15$SetGrphRXEQ      000000018002d91c     update.obj
 0002:0000392c       $chain$16$SetGrphRXEQ      000000018002d92c     update.obj
 0002:00003940       $chain$17$SetGrphRXEQ      000000018002d940     update.obj
 0002:00003950       $chain$18$SetGrphRXEQ      000000018002d950     update.obj
 0002:00003964       $chain$19$SetGrphRXEQ      000000018002d964     update.obj
 0002:00003974       $unwind$SetRXFilterMode    000000018002d974     update.obj
 0002:0000398c       $unwind$SetGrphTXEQcmd     000000018002d98c     update.obj
 0002:000039a0       $unwind$SetGrphTXEQ10      000000018002d9a0     update.obj
 0002:000039ac       $chain$13$SetGrphTXEQ10    000000018002d9ac     update.obj
 0002:000039f4       $chain$15$SetGrphTXEQ10    000000018002d9f4     update.obj
 0002:00003a3c       $unwind$SetGrphTXEQ        000000018002da3c     update.obj
 0002:00003a58       $chain$2$SetGrphTXEQ       000000018002da58     update.obj
 0002:00003a70       $chain$5$SetGrphTXEQ       000000018002da70     update.obj
 0002:00003a8c       $chain$6$SetGrphTXEQ       000000018002da8c     update.obj
 0002:00003aa0       $chain$7$SetGrphTXEQ       000000018002daa0     update.obj
 0002:00003ab4       $chain$10$SetGrphTXEQ      000000018002dab4     update.obj
 0002:00003ad0       $chain$11$SetGrphTXEQ      000000018002dad0     update.obj
 0002:00003ae8       $chain$12$SetGrphTXEQ      000000018002dae8     update.obj
 0002:00003afc       $chain$13$SetGrphTXEQ      000000018002dafc     update.obj
 0002:00003b0c       $chain$14$SetGrphTXEQ      000000018002db0c     update.obj
 0002:00003b1c       $chain$15$SetGrphTXEQ      000000018002db1c     update.obj
 0002:00003b2c       $chain$16$SetGrphTXEQ      000000018002db2c     update.obj
 0002:00003b40       $chain$17$SetGrphTXEQ      000000018002db40     update.obj
 0002:00003b54       $chain$18$SetGrphTXEQ      000000018002db54     update.obj
 0002:00003b64       $unwind$SetSpectrumPolyphase 000000018002db64     update.obj
 0002:00003b78       $chain$0$SetSpectrumPolyphase 000000018002db78     update.obj
 0002:00003b8c       $chain$1$SetSpectrumPolyphase 000000018002db8c     update.obj
 0002:00003b9c       $unwind$SetWindow          000000018002db9c     update.obj
 0002:00003bb0       $unwind$SetPWSmode         000000018002dbb0     update.obj
 0002:00003bc8       $unwind$SetCorrectTXIQW    000000018002dbc8     update.obj
 0002:00003be0       $unwind$SetCorrectTXIQMu   000000018002dbe0     update.obj
 0002:00003bf4       $unwind$SetCorrectTXIQPhase 000000018002dbf4     update.obj
 0002:00003c08       $unwind$SetCorrectTXIQGain 000000018002dc08     update.obj
 0002:00003c1c       $unwind$SetCorrectTXIQ     000000018002dc1c     update.obj
 0002:00003c34       $unwind$SetCorrectRXIQwImag 000000018002dc34     update.obj
 0002:00003c50       $unwind$SetCorrectRXIQwReal 000000018002dc50     update.obj
 0002:00003c6c       $unwind$GetCorrectRXIQw    000000018002dc6c     update.obj
 0002:00003c84       $unwind$SetCorrectRXIQw    000000018002dc84     update.obj
 0002:00003ca0       $unwind$SetCorrectRXIQMu   000000018002dca0     update.obj
 0002:00003cb8       $unwind$SetCorrectIQEnable 000000018002dcb8     update.obj
 0002:00003cc0       $unwind$SetIQFixed         000000018002dcc0     update.obj
 0002:00003cd4       $unwind$SetIQSuspended     000000018002dcd4     update.obj
 0002:00003cdc       $unwind$ResetRingBuffer    000000018002dcdc     update.obj
 0002:00003ce4       $unwind$SetCorrectIQPhase  000000018002dce4     update.obj
 0002:00003cfc       $unwind$SetCorrectIQGain   000000018002dcfc     update.obj
 0002:00003d14       $unwind$SetCorrectIQ       000000018002dd14     update.obj
 0002:00003d30       $unwind$GetSAMFreq         000000018002dd30     update.obj
 0002:00003d48       $unwind$SetSAMPLLvals      000000018002dd48     update.obj
 0002:00003d64       $unwind$GetSAMPLLvals      000000018002dd64     update.obj
 0002:00003d7c       $unwind$SetRXAGCTop        000000018002dd7c     update.obj
 0002:00003d94       $unwind$SetFixedAGC        000000018002dd94     update.obj
 0002:00003dac       $unwind$SetTXLevelerTop    000000018002ddac     update.obj
 0002:00003dc0       $unwind$SetTXLevelerHang   000000018002ddc0     update.obj
 0002:00003dd4       $unwind$SetTXLevelerDecay  000000018002ddd4     update.obj
 0002:00003df0       $unwind$SetTXLevelerAttack 000000018002ddf0     update.obj
 0002:00003e0c       $unwind$SetTXLevelerSt     000000018002de0c     update.obj
 0002:00003e20       $unwind$SetTXALCHang       000000018002de20     update.obj
 0002:00003e34       $unwind$SetTXALCBot        000000018002de34     update.obj
 0002:00003e48       $unwind$SetTXALCDecay      000000018002de48     update.obj
 0002:00003e64       $unwind$SetTXAMCarrierLevel 000000018002de64     update.obj
 0002:00003e78       $unwind$SetTXALCAttack     000000018002de78     update.obj
 0002:00003e94       $unwind$SetRXAGCHangThreshold 000000018002de94     update.obj
 0002:00003eac       $unwind$SetRXAGCSlope      000000018002deac     update.obj
 0002:00003ec4       $unwind$SetRXAGCHang       000000018002dec4     update.obj
 0002:00003edc       $unwind$SetRXAGCDecay      000000018002dedc     update.obj
 0002:00003efc       $unwind$SetRXAGCAttack     000000018002defc     update.obj
 0002:00003f1c       $unwind$SetRXAGC           000000018002df1c     update.obj
 0002:00003f3c       $unwind$SetBIN             000000018002df3c     update.obj
 0002:00003f54       $unwind$SetSDROMvals       000000018002df54     update.obj
 0002:00003f6c       $unwind$SetSDROM           000000018002df6c     update.obj
 0002:00003f84       $unwind$SetNBvals          000000018002df84     update.obj
 0002:00003f9c       $unwind$SetNB              000000018002df9c     update.obj
 0002:00003fb4       $unwind$SetANFvals         000000018002dfb4     update.obj
 0002:00003fcc       $unwind$SetANF             000000018002dfcc     update.obj
 0002:00003fe4       $unwind$SetTXSquelchAtt    000000018002dfe4     update.obj
 0002:00003ff8       $unwind$SetTXSquelchVal    000000018002dff8     update.obj
 0002:0000400c       $unwind$SetTXSquelchSt     000000018002e00c     update.obj
 0002:00004020       $unwind$SetTXCompand       000000018002e020     update.obj
 0002:00004034       $unwind$SetTXCompandSt     000000018002e034     update.obj
 0002:00004048       $unwind$SetNRvals          000000018002e048     update.obj
 0002:00004060       $unwind$SetNR              000000018002e060     update.obj
 0002:00004078       $unwind$SetSampleRate      000000018002e078     update.obj
 0002:00004090       $chain$0$SetSampleRate     000000018002e090     update.obj
 0002:000040a4       $chain$1$SetSampleRate     000000018002e0a4     update.obj
 0002:000040b4       $unwind$SetTXOsc           000000018002e0b4     update.obj
 0002:000040c8       $chain$0$SetTXOsc          000000018002e0c8     update.obj
 0002:000040dc       $chain$1$SetTXOsc          000000018002e0dc     update.obj
 0002:000040ec       $unwind$SetRXOsc           000000018002e0ec     update.obj
 0002:00004104       $chain$0$SetRXOsc          000000018002e104     update.obj
 0002:00004118       $chain$1$SetRXOsc          000000018002e118     update.obj
 0002:00004128       $unwind$SetOscPhase        000000018002e128     update.obj
 0002:00004134       $unwind$SetRXOscPhase      000000018002e134     update.obj
 0002:00004140       $unwind$SetRXOutputGain    000000018002e140     update.obj
 0002:00004158       $unwind$Release_Update     000000018002e158     update.obj
 0002:00004160       $unwind$SetRXLowPassFilter 000000018002e160     update.obj
 0002:00004180       $unwind$SetRXHighPassFilter 000000018002e180     update.obj
 0002:000041a0       $unwind$SetRXFilter        000000018002e1a0     update.obj
 0002:000041c4       $unwind$FMenableStereo     000000018002e1c4     update.obj
 0002:000041d8       $unwind$FMreload           000000018002e1d8     update.obj
 0002:000041e8       $unwind$SetTXFilter        000000018002e1e8     update.obj
 0002:0000420c       $unwind$SetTXFMDeviation   000000018002e20c     update.obj
 0002:00004220       $unwind$SetTXDCBlock       000000018002e220     update.obj
 0002:00004234       $unwind$SetRXDCBlockGain   000000018002e234     update.obj
 0002:0000424c       $unwind$SetRXDCBlock       000000018002e24c     update.obj
 0002:00004264       $unwind$SetTXMode          000000018002e264     update.obj
 0002:00004278       $unwind$SetMode            000000018002e278     update.obj
 0002:00004290       $unwind$SetThreadProcessingMode 000000018002e290     update.obj
 0002:000042a8       $unwind$SetThreadCom       000000018002e2a8     update.obj
 0002:000042b0       $unwind$SetThreadNo        000000018002e2b0     update.obj
 0002:000042b8       $unwind$Destroy_SDR        000000018002e2b8     update.obj
 0002:000042c0       $chain$2$Destroy_SDR       000000018002e2c0     update.obj
 0002:000042dc       $chain$3$Destroy_SDR       000000018002e2dc     update.obj
 0002:000042ec       $unwind$gmean              000000018002e2ec     update.obj
 0002:000042f4       $unwind$dB2lin             000000018002e2f4     update.obj
 0002:000042fc       $unwind$makewindow         000000018002e2fc     window.obj
 0002:00004340       $unwind$setup_defaults     000000018002e340     winmain.obj
 0002:00004354       $unwind$setup_threading    000000018002e354     winmain.obj
 0002:00004360       $unwind$setup_system_audio 000000018002e360     winmain.obj
 0002:00004370       $unwind$setup_local_audio  000000018002e370     winmain.obj
 0002:00004380       $unwind$process_TX_samples_thread 000000018002e380     winmain.obj
 0002:00004394       $chain$0$process_TX_samples_thread 000000018002e394     winmain.obj
 0002:000043a8       $chain$1$process_TX_samples_thread 000000018002e3a8     winmain.obj
 0002:000043b8       $unwind$process_samples_thread 000000018002e3b8     winmain.obj
 0002:000043c8       $chain$1$process_samples_thread 000000018002e3c8     winmain.obj
 0002:000043e0       $chain$2$process_samples_thread 000000018002e3e0     winmain.obj
 0002:000043f0       $unwind$Audio_Callback2    000000018002e3f0     winmain.obj
 0002:00004404       $chain$0$Audio_Callback2   000000018002e404     winmain.obj
 0002:00004418       $chain$3$Audio_Callback2   000000018002e418     winmain.obj
 0002:00004434       $chain$4$Audio_Callback2   000000018002e434     winmain.obj
 0002:00004444       $chain$5$Audio_Callback2   000000018002e444     winmain.obj
 0002:00004454       $unwind$Audio_Output_Callback 000000018002e454     winmain.obj
 0002:00004468       $chain$0$Audio_Output_Callback 000000018002e468     winmain.obj
 0002:0000447c       $chain$1$Audio_Output_Callback 000000018002e47c     winmain.obj
 0002:0000448c       $unwind$Audio_Input_Callback 000000018002e48c     winmain.obj
 0002:000044a0       $unwind$Audio_Callback     000000018002e4a0     winmain.obj
 0002:000044bc       $unwind$reset_system_audio 000000018002e4bc     winmain.obj
 0002:000044c8       $chain$3$reset_system_audio 000000018002e4c8     winmain.obj
 0002:000044e8       $chain$4$reset_system_audio 000000018002e4e8     winmain.obj
 0002:000044f8       $unwind$run_swch           000000018002e4f8     winmain.obj
 0002:0000450c       $chain$2$run_swch          000000018002e50c     winmain.obj
 0002:00004528       $chain$3$run_swch          000000018002e528     winmain.obj
 0002:00004538       $unwind$run_play           000000018002e538     winmain.obj
 0002:00004540       $unwind$run_mute           000000018002e540     winmain.obj
 0002:00004550       $unwind$puthold            000000018002e550     winmain.obj
 0002:0000455c       $unwind$gethold            000000018002e55c     winmain.obj
 0002:00004568       $unwind$reset_for_buflen   000000018002e568     winmain.obj
 0002:00004578       $chain$2$reset_for_buflen  000000018002e578     winmain.obj
 0002:00004590       $chain$3$reset_for_buflen  000000018002e590     winmain.obj
 0002:000045a4       $unwind$setup              000000018002e5a4     winmain.obj
 0002:000045b8       $chain$6$setup             000000018002e5b8     winmain.obj
 0002:000045e4       $chain$7$setup             000000018002e5e4     winmain.obj
 0002:000045f4       $unwind$closeup            000000018002e5f4     winmain.obj
 0002:000045fc       $chain$2$closeup           000000018002e5fc     winmain.obj
 0002:00004618       $chain$3$closeup           000000018002e618     winmain.obj
 0002:00004628       $unwind$reset_for_samplerate 000000018002e628     winmain.obj
 0002:00004644       $unwind$Cmag               000000018002e644     wscompand.obj
 0002:0000464c       $unwind$WSCReset           000000018002e64c     wscompand.obj
 0002:00004660       $chain$2$WSCReset          000000018002e660     wscompand.obj
 0002:0000467c       $chain$3$WSCReset          000000018002e67c     wscompand.obj
 0002:0000468c       $unwind$delWSCompander     000000018002e68c     wscompand.obj
 0002:00004694       $chain$0$delWSCompander    000000018002e694     wscompand.obj
 0002:000046a8       $chain$1$delWSCompander    000000018002e6a8     wscompand.obj
 0002:000046b8       $unwind$newWSCompander     000000018002e6b8     wscompand.obj
 0002:000046cc       $unwind$WSCompand          000000018002e6cc     wscompand.obj
 0002:000046d8       $chain$4$WSCompand         000000018002e6d8     wscompand.obj
 0002:000046fc       $chain$5$WSCompand         000000018002e6fc     wscompand.obj
 0002:00004710       $chain$6$WSCompand         000000018002e710     wscompand.obj
 0002:00004720       $chain$7$WSCompand         000000018002e720     wscompand.obj
 0002:00004730       $unwind$fast_cos           000000018002e730     fastrig1.obj
 0002:0000473c       $unwind$fast_sin           000000018002e73c     fastrig1.obj
 0002:00004748       $unwind$InitSPEEDTRIG      000000018002e748     fastrig1.obj
 0002:00004760       $chain$4$InitSPEEDTRIG     000000018002e760     fastrig1.obj
 0002:00004774       $chain$5$InitSPEEDTRIG     000000018002e774     fastrig1.obj
 0002:00004784       $unwind$fast_atan2         000000018002e784     fastrig1.obj
 0002:00004790       $chain$1$fast_atan2        000000018002e790     fastrig1.obj
 0002:000047a8       $chain$2$fast_atan2        000000018002e7a8     fastrig1.obj
 0002:000047b8       $unwind$__GSHandlerCheckCommon 000000018002e7b8     MSVCRT:_gshandler_.obj
 0002:000047c0       $unwind$__GSHandlerCheck   000000018002e7c0     MSVCRT:_gshandler_.obj
 0002:000047c8       $xdatasym                  000000018002e7c8     MSVCRT:_chkstk_.obj
 0002:000047d0       $xdatasym                  000000018002e7d0     MSVCRT:_svml_dcos2_sse2_.obj
 0002:00004800       $xdatasym                  000000018002e800     MSVCRT:_svml_dsin2_sse2_.obj
 0002:00004830       .edata                     000000018002e830     DttSP.exp
 0002:00004858       rgpv                       000000018002e858     DttSP.exp
 0002:00004b0c       rgszName                   000000018002eb0c     DttSP.exp
 0002:00004dc0       rgwOrd                     000000018002edc0     DttSP.exp
 0002:00004f1a       szName                     000000018002ef1a     DttSP.exp
 0002:00004f24       $N00001                    000000018002ef24     DttSP.exp
 0002:00004f2f       $N00002                    000000018002ef2f     DttSP.exp
 0002:00004f3e       $N00003                    000000018002ef3e     DttSP.exp
 0002:00004f4e       $N00004                    000000018002ef4e     DttSP.exp
 0002:00004f63       $N00005                    000000018002ef63     DttSP.exp
 0002:00004f79       $N00006                    000000018002ef79     DttSP.exp
 0002:00004f8b       $N00007                    000000018002ef8b     DttSP.exp
 0002:00004f99       $N00008                    000000018002ef99     DttSP.exp
 0002:00004fa8       $N00009                    000000018002efa8     DttSP.exp
 0002:00004fb9       $N00010                    000000018002efb9     DttSP.exp
 0002:00004fca       $N00011                    000000018002efca     DttSP.exp
 0002:00004fda       $N00012                    000000018002efda     DttSP.exp
 0002:00004feb       $N00013                    000000018002efeb     DttSP.exp
 0002:00004ff7       $N00014                    000000018002eff7     DttSP.exp
 0002:0000500e       $N00015                    000000018002f00e     DttSP.exp
 0002:0000501a       $N00016                    000000018002f01a     DttSP.exp
 0002:00005026       $N00017                    000000018002f026     DttSP.exp
 0002:00005033       $N00018                    000000018002f033     DttSP.exp
 0002:0000503f       $N00019                    000000018002f03f     DttSP.exp
 0002:00005050       $N00020                    000000018002f050     DttSP.exp
 0002:00005061       $N00021                    000000018002f061     DttSP.exp
 0002:00005070       $N00022                    000000018002f070     DttSP.exp
 0002:00005079       $N00023                    000000018002f079     DttSP.exp
 0002:00005086       $N00024                    000000018002f086     DttSP.exp
 0002:00005097       $N00025                    000000018002f097     DttSP.exp
 0002:000050a7       $N00026                    000000018002f0a7     DttSP.exp
 0002:000050b2       $N00027                    000000018002f0b2     DttSP.exp
 0002:000050c0       $N00028                    000000018002f0c0     DttSP.exp
 0002:000050d6       $N00029                    000000018002f0d6     DttSP.exp
 0002:000050e9       $N00030                    000000018002f0e9     DttSP.exp
 0002:000050f6       $N00031                    000000018002f0f6     DttSP.exp
 0002:00005103       $N00032                    000000018002f103     DttSP.exp
 0002:00005117       $N00033                    000000018002f117     DttSP.exp
 0002:00005128       $N00034                    000000018002f128     DttSP.exp
 0002:0000513b       $N00035                    000000018002f13b     DttSP.exp
 0002:00005144       $N00036                    000000018002f144     DttSP.exp
 0002:00005151       $N00037                    000000018002f151     DttSP.exp
 0002:0000515f       $N00038                    000000018002f15f     DttSP.exp
 0002:00005175       $N00039                    000000018002f175     DttSP.exp
 0002:00005186       $N00040                    000000018002f186     DttSP.exp
 0002:00005194       $N00041                    000000018002f194     DttSP.exp
 0002:000051a1       $N00042                    000000018002f1a1     DttSP.exp
 0002:000051af       $N00043                    000000018002f1af     DttSP.exp
 0002:000051c7       $N00044                    000000018002f1c7     DttSP.exp
 0002:000051da       $N00045                    000000018002f1da     DttSP.exp
 0002:000051e8       $N00046                    000000018002f1e8     DttSP.exp
 0002:000051f6       $N00047                    000000018002f1f6     DttSP.exp
 0002:00005207       $N00048                    000000018002f207     DttSP.exp
 0002:00005216       $N00049                    000000018002f216     DttSP.exp
 0002:00005226       $N00050                    000000018002f226     DttSP.exp
 0002:0000522d       $N00051                    000000018002f22d     DttSP.exp
 0002:00005238       $N00052                    000000018002f238     DttSP.exp
 0002:00005245       $N00053                    000000018002f245     DttSP.exp
 0002:0000524c       $N00054                    000000018002f24c     DttSP.exp
 0002:00005261       $N00055                    000000018002f261     DttSP.exp
 0002:00005271       $N00056                    000000018002f271     DttSP.exp
 0002:0000527e       $N00057                    000000018002f27e     DttSP.exp
 0002:00005291       $N00058                    000000018002f291     DttSP.exp
 0002:000052a2       $N00059                    000000018002f2a2     DttSP.exp
 0002:000052b4       $N00060                    000000018002f2b4     DttSP.exp
 0002:000052c5       $N00061                    000000018002f2c5     DttSP.exp
 0002:000052d5       $N00062                    000000018002f2d5     DttSP.exp
 0002:000052e9       $N00063                    000000018002f2e9     DttSP.exp
 0002:000052fd       $N00064                    000000018002f2fd     DttSP.exp
 0002:0000530c       $N00065                    000000018002f30c     DttSP.exp
 0002:0000531f       $N00066                    000000018002f31f     DttSP.exp
 0002:00005330       $N00067                    000000018002f330     DttSP.exp
 0002:00005344       $N00068                    000000018002f344     DttSP.exp
 0002:00005354       $N00069                    000000018002f354     DttSP.exp
 0002:00005361       $N00070                    000000018002f361     DttSP.exp
 0002:0000536e       $N00071                    000000018002f36e     DttSP.exp
 0002:0000537f       $N00072                    000000018002f37f     DttSP.exp
 0002:00005392       $N00073                    000000018002f392     DttSP.exp
 0002:0000539e       $N00074                    000000018002f39e     DttSP.exp
 0002:000053aa       $N00075                    000000018002f3aa     DttSP.exp
 0002:000053b8       $N00076                    000000018002f3b8     DttSP.exp
 0002:000053c7       $N00077                    000000018002f3c7     DttSP.exp
 0002:000053d3       $N00078                    000000018002f3d3     DttSP.exp
 0002:000053e1       $N00079                    000000018002f3e1     DttSP.exp
 0002:000053f0       $N00080                    000000018002f3f0     DttSP.exp
 0002:000053fb       $N00081                    000000018002f3fb     DttSP.exp
 0002:0000540a       $N00082                    000000018002f40a     DttSP.exp
 0002:00005416       $N00083                    000000018002f416     DttSP.exp
 0002:00005427       $N00084                    000000018002f427     DttSP.exp
 0002:00005434       $N00085                    000000018002f434     DttSP.exp
 0002:00005441       $N00086                    000000018002f441     DttSP.exp
 0002:0000544e       $N00087                    000000018002f44e     DttSP.exp
 0002:00005465       $N00088                    000000018002f465     DttSP.exp
 0002:00005474       $N00089                    000000018002f474     DttSP.exp
 0002:00005481       $N00090                    000000018002f481     DttSP.exp
 0002:00005493       $N00091                    000000018002f493     DttSP.exp
 0002:000054a2       $N00092                    000000018002f4a2     DttSP.exp
 0002:000054af       $N00093                    000000018002f4af     DttSP.exp
 0002:000054c2       $N00094                    000000018002f4c2     DttSP.exp
 0002:000054d0       $N00095                    000000018002f4d0     DttSP.exp
 0002:000054df       $N00096                    000000018002f4df     DttSP.exp
 0002:000054e7       $N00097                    000000018002f4e7     DttSP.exp
 0002:000054f6       $N00098                    000000018002f4f6     DttSP.exp
 0002:000054fc       $N00099                    000000018002f4fc     DttSP.exp
 0002:00005506       $N00100                    000000018002f506     DttSP.exp
 0002:0000550c       $N00101                    000000018002f50c     DttSP.exp
 0002:00005516       $N00102                    000000018002f516     DttSP.exp
 0002:00005522       $N00103                    000000018002f522     DttSP.exp
 0002:0000552e       $N00104                    000000018002f52e     DttSP.exp
 0002:00005539       $N00105                    000000018002f539     DttSP.exp
 0002:00005542       $N00106                    000000018002f542     DttSP.exp
 0002:00005551       $N00107                    000000018002f551     DttSP.exp
 0002:0000555f       $N00108                    000000018002f55f     DttSP.exp
 0002:0000556c       $N00109                    000000018002f56c     DttSP.exp
 0002:00005582       $N00110                    000000018002f582     DttSP.exp
 0002:00005590       $N00111                    000000018002f590     DttSP.exp
 0002:0000559c       $N00112                    000000018002f59c     DttSP.exp
 0002:000055a9       $N00113                    000000018002f5a9     DttSP.exp
 0002:000055ba       $N00114                    000000018002f5ba     DttSP.exp
 0002:000055c6       $N00115                    000000018002f5c6     DttSP.exp
 0002:000055d6       $N00116                    000000018002f5d6     DttSP.exp
 0002:000055ea       $N00117                    000000018002f5ea     DttSP.exp
 0002:000055fd       $N00118                    000000018002f5fd     DttSP.exp
 0002:00005606       $N00119                    000000018002f606     DttSP.exp
 0002:00005614       $N00120                    000000018002f614     DttSP.exp
 0002:00005624       $N00121                    000000018002f624     DttSP.exp
 0002:0000562d       $N00122                    000000018002f62d     DttSP.exp
 0002:0000563b       $N00123                    000000018002f63b     DttSP.exp
 0002:0000564f       $N00124                    000000018002f64f     DttSP.exp
 0002:0000565d       $N00125                    000000018002f65d     DttSP.exp
 0002:00005666       $N00126                    000000018002f666     DttSP.exp
 0002:00005673       $N00127                    000000018002f673     DttSP.exp
 0002:0000567e       $N00128                    000000018002f67e     DttSP.exp
 0002:0000568c       $N00129                    000000018002f68c     DttSP.exp
 0002:000056a1       $N00130                    000000018002f6a1     DttSP.exp
 0002:000056b1       $N00131                    000000018002f6b1     DttSP.exp
 0002:000056bf       $N00132                    000000018002f6bf     DttSP.exp
 0002:000056ca       $N00133                    000000018002f6ca     DttSP.exp
 0002:000056d1       $N00134                    000000018002f6d1     DttSP.exp
 0002:000056e5       $N00135                    000000018002f6e5     DttSP.exp
 0002:000056f0       $N00136                    000000018002f6f0     DttSP.exp
 0002:00005706       $N00137                    000000018002f706     DttSP.exp
 0002:00005715       $N00138                    000000018002f715     DttSP.exp
 0002:00005721       $N00139                    000000018002f721     DttSP.exp
 0002:0000572f       $N00140                    000000018002f72f     DttSP.exp
 0002:0000573c       $N00141                    000000018002f73c     DttSP.exp
 0002:00005750       $N00142                    000000018002f750     DttSP.exp
 0002:0000575d       $N00143                    000000018002f75d     DttSP.exp
 0002:0000576c       $N00144                    000000018002f76c     DttSP.exp
 0002:00005779       $N00145                    000000018002f779     DttSP.exp
 0002:0000578a       $N00146                    000000018002f78a     DttSP.exp
 0002:00005796       $N00147                    000000018002f796     DttSP.exp
 0002:000057a9       $N00148                    000000018002f7a9     DttSP.exp
 0002:000057bb       $N00149                    000000018002f7bb     DttSP.exp
 0002:000057cc       $N00150                    000000018002f7cc     DttSP.exp
 0002:000057db       $N00151                    000000018002f7db     DttSP.exp
 0002:000057eb       $N00152                    000000018002f7eb     DttSP.exp
 0002:000057f5       $N00153                    000000018002f7f5     DttSP.exp
 0002:000057fe       $N00154                    000000018002f7fe     DttSP.exp
 0002:0000580e       $N00155                    000000018002f80e     DttSP.exp
 0002:0000581d       $N00156                    000000018002f81d     DttSP.exp
 0002:0000582d       $N00157                    000000018002f82d     DttSP.exp
 0002:0000583a       $N00158                    000000018002f83a     DttSP.exp
 0002:00005846       $N00159                    000000018002f846     DttSP.exp
 0002:0000585e       $N00160                    000000018002f85e     DttSP.exp
 0002:0000586a       $N00161                    000000018002f86a     DttSP.exp
 0002:00005874       $N00162                    000000018002f874     DttSP.exp
 0002:0000587e       $N00163                    000000018002f87e     DttSP.exp
 0002:00005889       $N00164                    000000018002f889     DttSP.exp
 0002:00005893       $N00165                    000000018002f893     DttSP.exp
 0002:0000589d       $N00166                    000000018002f89d     DttSP.exp
 0002:000058ae       $N00167                    000000018002f8ae     DttSP.exp
 0002:000058c1       $N00168                    000000018002f8c1     DttSP.exp
 0002:000058d5       $N00169                    000000018002f8d5     DttSP.exp
 0002:000058e5       $N00170                    000000018002f8e5     DttSP.exp
 0002:000058f6       $N00171                    000000018002f8f6     DttSP.exp
 0002:00005910       $N00172                    000000018002f910     DttSP.exp
 0002:00005927       $N00173                    000000018002f927     DttSP.exp
 0002:00005d78       .idata$6                   000000018002fd78     winMM:WINMM.dll
 0002:00005dde       .idata$6                   000000018002fdde     libfftw3f-3_x64:libfftw3f-3.dll
 0002:00005e30       .idata$6                   000000018002fe30     pthreadVC_x64:pthreadVC_x64.dll
 0002:00005f20       .idata$6                   000000018002ff20     kernel32:KERNEL32.dll
 0002:00005f70       .idata$6                   000000018002ff70     vcruntime:VCRUNTIME140.dll
 0002:0000618e       .idata$6                   000000018003018e     ucrt:api-ms-win-crt-runtime-l1-1-0.dll
 0002:000061b0       .idata$6                   00000001800301b0     ucrt:api-ms-win-crt-time-l1-1-0.dll
 0002:000061d0       .idata$6                   00000001800301d0     ucrt:api-ms-win-crt-stdio-l1-1-0.dll
 0002:000061f0       .idata$6                   00000001800301f0     ucrt:api-ms-win-crt-filesystem-l1-1-0.dll
 0002:00006216       .idata$6                   0000000180030216     ucrt:api-ms-win-crt-environment-l1-1-0.dll
 0002:0000623c       .idata$6                   000000018003023c     ucrt:api-ms-win-crt-heap-l1-1-0.dll
 0002:0000625c       .idata$6                   000000018003025c     ucrt:api-ms-win-crt-string-l1-1-0.dll
 0002:00006418       .idata$6                   0000000180030418     ucrt:api-ms-win-crt-math-l1-1-0.dll
 0003:00000040       $SG4294966619              0000000180031040     banal.obj
 0003:00000060       $SG4294966618              0000000180031060     banal.obj
 0003:00000080       $SG4294966617              0000000180031080     banal.obj
 0003:000000a0       $SG4294966616              00000001800310a0     banal.obj
 0003:000000a8       $SG4294966615              00000001800310a8     banal.obj
 0003:000000b0       $SG4294966614              00000001800310b0     banal.obj
 0003:000000b4       $SG4294966613              00000001800310b4     banal.obj
 0003:000000bc       $SG4294966611              00000001800310bc     banal.obj
 0003:000000c4       $SG4294966610              00000001800310c4     banal.obj
 0003:000000c8       $SG4294966612              00000001800310c8     banal.obj
 0003:000000dc       $SG4294966156              00000001800310dc     bufvec.obj
 0003:000000e8       $SG4294966162              00000001800310e8     bufvec.obj
 0003:000000f8       $SG4294966161              00000001800310f8     bufvec.obj
 0003:00000104       $SG4294966155              0000000180031104     bufvec.obj
 0003:00000110       $SG4294966160              0000000180031110     bufvec.obj
 0003:00000120       $SG4294966159              0000000180031120     bufvec.obj
 0003:0000012c       mon_freq                   000000018003112c     keyd.obj
 0003:00000130       $SG4294966158              0000000180031130     bufvec.obj
 0003:00000148       $SG4294966157              0000000180031148     bufvec.obj
 0003:00000154       fall                       0000000180031154     keyd.obj
 0003:00000158       $SG4294966154              0000000180031158     bufvec.obj
 0003:00000168       $SG4294966153              0000000180031168     bufvec.obj
 0003:00000170       $SG4294966152              0000000180031170     bufvec.obj
 0003:00000180       $SG4294966151              0000000180031180     bufvec.obj
 0003:00000188       $SG4294966150              0000000180031188     bufvec.obj
 0003:00000198       $SG4294966149              0000000180031198     bufvec.obj
 0003:000001a4       rise                       00000001800311a4     keyd.obj
 0003:000001a8       $SG4294965753              00000001800311a8     correctIQ.obj
 0003:000001b4       freq                       00000001800311b4     keyd.obj
 0003:000001b8       $SG4294965752              00000001800311b8     correctIQ.obj
 0003:000001c4       $SG4294956996              00000001800311c4     sdr.obj
 0003:000001c8       $SG4294965751              00000001800311c8     correctIQ.obj
 0003:000001d4       $SG4294956985              00000001800311d4     sdr.obj
 0003:000001d8       $SG4294965750              00000001800311d8     correctIQ.obj
 0003:000001e4       $SG4294956973              00000001800311e4     sdr.obj
 0003:000001e8       $SG4294965749              00000001800311e8     correctIQ.obj
 0003:000001f8       $SG4294965359              00000001800311f8     cwtones.obj
 0003:00000208       $SG4294965358              0000000180031208     cwtones.obj
 0003:00000214       $SG4294956972              0000000180031214     sdr.obj
 0003:00000218       $SG4294965357              0000000180031218     cwtones.obj
 0003:00000228       $SG4294964624              0000000180031228     dcblock.obj
 0003:00000234       $SG4294955393              0000000180031234     splitfields.obj
 0003:00000238       $SG4294964623              0000000180031238     dcblock.obj
 0003:00000248       $SG4294964248              0000000180031248     dttspagc.obj
 0003:00000258       $SG4294964247              0000000180031258     dttspagc.obj
 0003:00000270       $SG4294963876              0000000180031270     filter.obj
 0003:00000288       $SG4294963875              0000000180031288     filter.obj
 0003:000002a8       $SG4294963874              00000001800312a8     filter.obj
 0003:000002c0       $SG4294963873              00000001800312c0     filter.obj
 0003:000002e0       $SG4294963872              00000001800312e0     filter.obj
 0003:000002f8       $SG4294963871              00000001800312f8     filter.obj
 0003:00000318       $SG4294963870              0000000180031318     filter.obj
 0003:00000330       $SG4294963869              0000000180031330     filter.obj
 0003:00000350       $SG4294963868              0000000180031350     filter.obj
 0003:00000368       $SG4294963867              0000000180031368     filter.obj
 0003:00000388       $SG4294963866              0000000180031388     filter.obj
 0003:000003a0       $SG4294963865              00000001800313a0     filter.obj
 0003:000003c0       $SG4294963864              00000001800313c0     filter.obj
 0003:000003d8       $SG4294963863              00000001800313d8     filter.obj
 0003:000003f8       $SG4294963862              00000001800313f8     filter.obj
 0003:00000410       $SG4294963861              0000000180031410     filter.obj
 0003:00000430       $SG4294963860              0000000180031430     filter.obj
 0003:00000448       $SG4294963859              0000000180031448     filter.obj
 0003:00000468       $SG4294963858              0000000180031468     filter.obj
 0003:00000480       $SG4294963857              0000000180031480     filter.obj
 0003:000004a0       $SG4294963090              00000001800314a0     fm_stereo_decoder.obj
 0003:000004b0       $SG4294963089              00000001800314b0     fm_stereo_decoder.obj
 0003:000004c8       $SG4294963088              00000001800314c8     fm_stereo_decoder.obj
 0003:000004e0       $SG4294963087              00000001800314e0     fm_stereo_decoder.obj
 0003:000004f8       $SG4294963086              00000001800314f8     fm_stereo_decoder.obj
 0003:00000518       $SG4294963085              0000000180031518     fm_stereo_decoder.obj
 0003:00000530       $SG4294963084              0000000180031530     fm_stereo_decoder.obj
 0003:00000548       $SG4294962690              0000000180031548     graphiceq.obj
 0003:00000558       $SG4294962689              0000000180031558     graphiceq.obj
 0003:00000568       $SG4294962688              0000000180031568     graphiceq.obj
 0003:00000578       $SG4294962313              0000000180031578     hilbert.obj
 0003:00000590       $SG4294962312              0000000180031590     hilbert.obj
 0003:000005b0       $SG4294962311              00000001800315b0     hilbert.obj
 0003:000005d0       $SG4294962310              00000001800315d0     hilbert.obj
 0003:000005f0       $SG4294962309              00000001800315f0     hilbert.obj
 0003:00000618       $SG4294962308              0000000180031618     hilbert.obj
 0003:00000640       $SG4294962307              0000000180031640     hilbert.obj
 0003:00000658       $SG4294962306              0000000180031658     hilbert.obj
 0003:00000680       $SG4294962305              0000000180031680     hilbert.obj
 0003:000006a8       $SG4294961938              00000001800316a8     IirFilter.obj
 0003:000006b8       $SG4294961571              00000001800316b8     isoband.obj
 0003:000006e0       _ISOband_info              00000001800316e0     isoband.obj
 0003:00000990       $SG4294961206              0000000180031990     keyd.obj
 0003:000009a8       $SG4294961205              00000001800319a8     keyd.obj
 0003:000009b8       $SG4294960718              00000001800319b8     keyer.obj
 0003:000009c8       $SG4294960717              00000001800319c8     keyer.obj
 0003:000009d8       $SG4294959989              00000001800319d8     lmadf.obj
 0003:000009e8       $SG4294959988              00000001800319e8     lmadf.obj
 0003:000009f8       $SG4294959987              00000001800319f8     lmadf.obj
 0003:00000a08       $SG4294959986              0000000180031a08     lmadf.obj
 0003:00000a18       $SG4294959985              0000000180031a18     lmadf.obj
 0003:00000a28       $SG4294959984              0000000180031a28     lmadf.obj
 0003:00000a40       $SG4294959983              0000000180031a40     lmadf.obj
 0003:00000a58       $SG4294959982              0000000180031a58     lmadf.obj
 0003:00000a78       $SG4294959981              0000000180031a78     lmadf.obj
 0003:00000a98       $SG4294959980              0000000180031a98     lmadf.obj
 0003:00000ab0       $SG4294959979              0000000180031ab0     lmadf.obj
 0003:00000ad0       $SG4294959978              0000000180031ad0     lmadf.obj
 0003:00000af0       $SG4294959977              0000000180031af0     lmadf.obj
 0003:00000b10       $SG4294959976              0000000180031b10     lmadf.obj
 0003:00000b28       $SG4294959232              0000000180031b28     noiseblanker.obj
 0003:00000b38       $SG4294958861              0000000180031b38     oscillator.obj
 0003:00000b60       $SG4294958860              0000000180031b60     oscillator.obj
 0003:00000b88       $SG4294958493              0000000180031b88     ovsv.obj
 0003:00000ba0       $SG4294958492              0000000180031ba0     ovsv.obj
 0003:00000bc0       $SG4294958491              0000000180031bc0     ovsv.obj
 0003:00000be0       $SG4294958490              0000000180031be0     ovsv.obj
 0003:00000c00       $SG4294958489              0000000180031c00     ovsv.obj
 0003:00000c20       $SG4294958488              0000000180031c20     ovsv.obj
 0003:00000c30       $SG4294958487              0000000180031c30     ovsv.obj
 0003:00000c58       $SG4294958118              0000000180031c58     resample.obj
 0003:00000c68       $SG4294958117              0000000180031c68     resample.obj
 0003:00000c80       $SG4294957748              0000000180031c80     resampleF.obj
 0003:00000c90       $SG4294957747              0000000180031c90     resampleF.obj
 0003:00000ca8       $SG4294957380              0000000180031ca8     ringb.obj
 0003:00000cb8       $SG4294957379              0000000180031cb8     ringb.obj
 0003:00000cc8       $SG4294957378              0000000180031cc8     ringb.obj
 0003:00000ce0       $SG4294957377              0000000180031ce0     ringb.obj
 0003:00000cf8       $SG4294956995              0000000180031cf8     sdr.obj
 0003:00000d08       $SG4294956994              0000000180031d08     sdr.obj
 0003:00000d28       $SG4294956993              0000000180031d28     sdr.obj
 0003:00000d48       $SG4294956992              0000000180031d48     sdr.obj
 0003:00000d70       $SG4294956991              0000000180031d70     sdr.obj
 0003:00000d98       $SG4294956990              0000000180031d98     sdr.obj
 0003:00000db8       $SG4294956989              0000000180031db8     sdr.obj
 0003:00000de0       $SG4294956988              0000000180031de0     sdr.obj
 0003:00000e08       $SG4294956987              0000000180031e08     sdr.obj
 0003:00000e28       $SG4294956986              0000000180031e28     sdr.obj
 0003:00000e40       $SG4294956984              0000000180031e40     sdr.obj
 0003:00000e58       $SG4294956983              0000000180031e58     sdr.obj
 0003:00000e70       $SG4294956982              0000000180031e70     sdr.obj
 0003:00000e80       $SG4294956981              0000000180031e80     sdr.obj
 0003:00000e98       $SG4294956980              0000000180031e98     sdr.obj
 0003:00000eb8       $SG4294956979              0000000180031eb8     sdr.obj
 0003:00000ed8       $SG4294956978              0000000180031ed8     sdr.obj
 0003:00000ef0       $SG4294956977              0000000180031ef0     sdr.obj
 0003:00000f08       $SG4294956976              0000000180031f08     sdr.obj
 0003:00000f20       $SG4294956975              0000000180031f20     sdr.obj
 0003:00000f38       $SG4294956974              0000000180031f38     sdr.obj
 0003:00000f50       $SG4294956971              0000000180031f50     sdr.obj
 0003:00000f68       $SG4294956136              0000000180031f68     spectrum.obj
 0003:00000f78       $SG4294956135              0000000180031f78     spectrum.obj
 0003:00000f88       $SG4294956134              0000000180031f88     spectrum.obj
 0003:00000fa0       $SG4294956133              0000000180031fa0     spectrum.obj
 0003:00000fb8       $SG4294956132              0000000180031fb8     spectrum.obj
 0003:00000fd0       $SG4294956131              0000000180031fd0     spectrum.obj
 0003:00000fe8       $SG4294956130              0000000180031fe8     spectrum.obj
 0003:00000ff8       $SG4294956129              0000000180031ff8     spectrum.obj
 0003:00001008       $SG4294956128              0000000180032008     spectrum.obj
 0003:00001018       $SG4294955757              0000000180032018     speechproc.obj
 0003:00001030       $SG4294955756              0000000180032030     speechproc.obj
 0003:00001050       $SG4294955755              0000000180032050     speechproc.obj
 0003:00001068       $SG4294955392              0000000180032068     splitfields.obj
 0003:00001078       $SG4294955021              0000000180032078     spottone.obj
 0003:00001088       $SG4294955020              0000000180032088     spottone.obj
 0003:00001098       $SG4294955019              0000000180032098     spottone.obj
 0003:000010a8       $SG4294954653              00000001800320a8     update.obj
 0003:000010c8       $SG4294954652              00000001800320c8     update.obj
 0003:000010e8       $SG4294954651              00000001800320e8     update.obj
 0003:00001108       $SG4294954650              0000000180032108     update.obj
 0003:00001128       $SG4294954649              0000000180032128     update.obj
 0003:00001138       $SG4294954648              0000000180032138     update.obj
 0003:00001150       $SG4294954647              0000000180032150     update.obj
 0003:00001160       $SG4294954646              0000000180032160     update.obj
 0003:00001178       $SG4294954645              0000000180032178     update.obj
 0003:00001188       $SG4294954644              0000000180032188     update.obj
 0003:000011a0       $SG4294954643              00000001800321a0     update.obj
 0003:000011b0       $SG4294954642              00000001800321b0     update.obj
 0003:000011c8       $SG4294953748              00000001800321c8     winmain.obj
 0003:000011e0       $SG4294953747              00000001800321e0     winmain.obj
 0003:000011f8       $SG4294953746              00000001800321f8     winmain.obj
 0003:00001210       $SG4294953745              0000000180032210     winmain.obj
 0003:00001228       $SG4294953744              0000000180032228     winmain.obj
 0003:00001238       $SG4294953743              0000000180032238     winmain.obj
 0003:00001248       $SG4294953742              0000000180032248     winmain.obj
 0003:00001258       $SG4294953741              0000000180032258     winmain.obj
 0003:00001270       $SG4294953740              0000000180032270     winmain.obj
 0003:00001280       $SG4294953739              0000000180032280     winmain.obj
 0003:00001298       $SG4294953738              0000000180032298     winmain.obj
 0003:000012a8       $SG4294953737              00000001800322a8     winmain.obj
 0003:000012c0       $SG4294953736              00000001800322c0     winmain.obj
 0003:000012d0       $SG4294953735              00000001800322d0     winmain.obj
 0003:000012e0       $SG4294953734              00000001800322e0     winmain.obj
 0003:000012f0       $SG4294953338              00000001800322f0     wscompand.obj
 0003:00001308       $SG4294953337              0000000180032308     wscompand.obj
 0003:00001320       $SG4294953336              0000000180032320     wscompand.obj
 0003:00001338       $SG4294952973              0000000180032338     fastrig1.obj
 0003:00001360       ?__proc_attached@@3HA      0000000180032360     MSVCRT:dll_dllmain.obj
 0003:00001370       GS_ExceptionRecord         0000000180032370     MSVCRT:gs_report.obj
 0003:00001410       GS_ContextRecord           0000000180032410     MSVCRT:gs_report.obj
 0003:00001900       ?module_local_atexit_table@@3U_onexit_table_t@@A 0000000180032900     MSVCRT:utility.obj
 0003:00001918       ?module_local_at_quick_exit_table@@3U_onexit_table_t@@A 0000000180032918     MSVCRT:utility.obj
 0003:00001930       ?module_local_atexit_table_initialized@@3_NA 0000000180032930     MSVCRT:utility.obj
 0003:00001940       ?is_initialized_as_dll@@3_NA 0000000180032940     MSVCRT:utility.obj
 0003:00001950       _safemem_currcount         0000000180032950     bufvec.obj
 0003:00001964       count                      0000000180032964     keyd.obj
 0003:00001970       iambic                     0000000180032970     keyd.obj
 0003:00001971       monitor                    0000000180032971     keyd.obj
 0003:00001972       bug                        0000000180032972     keyd.obj
 0003:00001973       playing                    0000000180032973     keyd.obj
 0003:00001974       cw_ring_reset              0000000180032974     keyd.obj
 0003:00001975       cw_mon_ring_reset          0000000180032975     keyd.obj
 0003:00001977       ?keystate@?1??read_straight_key@@9@9 0000000180032977     keyerio.obj
 0003:0000197c       gain                       000000018003297c     keyd.obj
 0003:00001980       ?debounce_buf_i@?1??read_iambic_key@@9@9 0000000180032980     keyerio.obj
 0003:00001984       ?dah@?1??read_iambic_key@@9@9 0000000180032984     keyerio.obj
 0003:00001988       ?debounce_buf_i@?1??read_straight_key@@9@9 0000000180032988     keyerio.obj
 0003:0000198c       ?dit@?1??read_iambic_key@@9@9 000000018003298c     keyerio.obj
 0003:00001990       lev_pk                     0000000180032990     sdr.obj
 0003:00001994       cpdr_pk                    0000000180032994     sdr.obj
 0003:00001998       comp_avg                   0000000180032998     sdr.obj
 0003:0000199c       cpdr_avg                   000000018003299c     sdr.obj
 0003:000019a0       lev_avg                    00000001800329a0     sdr.obj
 0003:000019a4       alc_avg                    00000001800329a4     sdr.obj
 0003:000019a8       eq_pk                      00000001800329a8     sdr.obj
 0003:000019ac       mic_pk                     00000001800329ac     sdr.obj
 0003:000019b0       eq_avg                     00000001800329b0     sdr.obj
 0003:000019b4       mic_avg                    00000001800329b4     sdr.obj
 0003:000019b8       comp_pk                    00000001800329b8     sdr.obj
 0003:000019bc       alc_pk                     00000001800329bc     sdr.obj
 0003:000019c0       peaksmooth                 00000001800329c0     sdr.obj
 0003:000019c4       TABLE_FACTOR               00000001800329c4     fastrig1.obj
 0003:000019c8       UPDATE_MON                 00000001800329c8     keyd.obj
 0003:000019f0       ?buff@?1??fmt_tv@@9@9      00000001800329f0     banal.obj
 0003:00001af0       EQ_Den                     0000000180032af0     graphiceq.obj
 0003:00001b00       EQ_Num                     0000000180032b00     graphiceq.obj
 0003:00001b10       CS_CW                      0000000180032b10     keyd.obj
 0003:00001b38       update_ok                  0000000180032b38     keyd.obj
 0003:00001b40       CS_CWMON                   0000000180032b40     keyd.obj
 0003:00001b68       cs_cwmon                   0000000180032b68     keyd.obj
 0003:00001b70       update_mon                 0000000180032b70     keyd.obj
 0003:00001b78       cs_cw                      0000000180032b78     keyd.obj
 0003:00001b80       UPDATE_OK                  0000000180032b80     keyd.obj
 0003:00001ba8       cosT                       0000000180032ba8     fastrig1.obj
 0003:00001bb0       ?dah_debounce_buf@?1??read_iambic_key@@9@9 0000000180032bb0     keyerio.obj
 0003:00001bd0       ?debounce_buf@?1??read_straight_key@@9@9 0000000180032bd0     keyerio.obj
 0003:00001c48       sinT                       0000000180032c48     fastrig1.obj
 0003:00001c50       ?dit_debounce_buf@?1??read_iambic_key@@9@9 0000000180032c50     keyerio.obj
 0004:0000000c       $pdata$?dllmain_crt_process_attach@@YAHQEAUHINSTANCE__@@QEAX@Z 000000018007d00c     MSVCRT:dll_dllmain.obj
 0004:00000018       $pdata$?fin$0@?0??dllmain_crt_process_attach@@YAHQEAUHINSTANCE__@@QEAX@Z@4HA 000000018007d018     MSVCRT:dll_dllmain.obj
 0004:00000024       $pdata$?dllmain_crt_process_detach@@YAH_N@Z 000000018007d024     MSVCRT:dll_dllmain.obj
 0004:00000030       $pdata$?fin$0@?0??dllmain_crt_process_detach@@YAH_N@Z@4HA 000000018007d030     MSVCRT:dll_dllmain.obj
 0004:0000003c       $pdata$?dllmain_crt_dispatch@@YAHQEAUHINSTANCE__@@KQEAX@Z 000000018007d03c     MSVCRT:dll_dllmain.obj
 0004:00000048       $pdata$?dllmain_raw@@YAHQEAUHINSTANCE__@@KQEAX@Z 000000018007d048     MSVCRT:dll_dllmain.obj
 0004:00000054       $pdata$?dllmain_dispatch@@YAHQEAUHINSTANCE__@@KQEAX@Z 000000018007d054     MSVCRT:dll_dllmain.obj
 0004:00000060       $pdata$?filt$0@?0??dllmain_dispatch@@YAHQEAUHINSTANCE__@@KQEAX@Z@4HA 000000018007d060     MSVCRT:dll_dllmain.obj
 0004:0000006c       $pdata$_DllMainCRTStartup  000000018007d06c     MSVCRT:dll_dllmain.obj
 0004:00000078       $pdata$__report_securityfailure 000000018007d078     MSVCRT:gs_report.obj
 0004:00000084       $pdata$__report_securityfailureEx 000000018007d084     MSVCRT:gs_report.obj
 0004:00000090       $pdata$__report_rangecheckfailure 000000018007d090     MSVCRT:gs_report.obj
 0004:0000009c       $pdata$__report_gsfailure  000000018007d09c     MSVCRT:gs_report.obj
 0004:000000a8       $pdata$capture_current_context 000000018007d0a8     MSVCRT:gs_report.obj
 0004:000000b4       $pdata$capture_previous_context 000000018007d0b4     MSVCRT:gs_report.obj
 0004:000000c0       $pdata$__raise_securityfailure 000000018007d0c0     MSVCRT:gs_report.obj
 0004:000000cc       $pdata$__security_init_cookie 000000018007d0cc     MSVCRT:gs_support.obj
 0004:000000d8       $pdata$__get_entropy       000000018007d0d8     MSVCRT:gs_support.obj
 0004:000000e4       $pdata$DllMain             000000018007d0e4     MSVCRT:dll_dllmain_stub.obj
 0004:000000f0       $pdata$__scrt_initialize_default_local_stdio_options 000000018007d0f0     MSVCRT:default_local_stdio_options.obj
 0004:000000fc       $pdata$atexit              000000018007d0fc     MSVCRT:utility.obj
 0004:00000108       $pdata$_onexit             000000018007d108     MSVCRT:utility.obj
 0004:00000114       $pdata$__scrt_is_nonwritable_in_current_image 000000018007d114     MSVCRT:utility.obj
 0004:00000120       $pdata$__scrt_is_nonwritable_in_current_image$filt$0 000000018007d120     MSVCRT:utility.obj
 0004:0000012c       $pdata$__scrt_acquire_startup_lock 000000018007d12c     MSVCRT:utility.obj
 0004:00000138       $pdata$__scrt_release_startup_lock 000000018007d138     MSVCRT:utility.obj
 0004:00000144       $pdata$__scrt_initialize_crt 000000018007d144     MSVCRT:utility.obj
 0004:00000150       $pdata$__scrt_uninitialize_crt 000000018007d150     MSVCRT:utility.obj
 0004:0000015c       $pdata$__scrt_initialize_onexit_tables 000000018007d15c     MSVCRT:utility.obj
 0004:00000168       $pdata$__scrt_dllmain_exception_filter 000000018007d168     MSVCRT:utility.obj
 0004:00000174       $pdata$__scrt_dllmain_before_initialize_c 000000018007d174     MSVCRT:utility.obj
 0004:00000180       $pdata$__scrt_dllmain_after_initialize_c 000000018007d180     MSVCRT:utility.obj
 0004:0000018c       $pdata$__scrt_dllmain_uninitialize_c 000000018007d18c     MSVCRT:utility.obj
 0004:00000198       $pdata$__scrt_dllmain_uninitialize_critical 000000018007d198     MSVCRT:utility.obj
 0004:000001a4       $pdata$__scrt_dllmain_crt_thread_attach 000000018007d1a4     MSVCRT:utility.obj
 0004:000001b0       $pdata$__scrt_dllmain_crt_thread_detach 000000018007d1b0     MSVCRT:utility.obj
 0004:000001bc       $pdata$?configure_argv@__scrt_narrow_argv_policy@@SAHXZ 000000018007d1bc     MSVCRT:utility.obj
 0004:000001c8       $pdata$__scrt_get_show_window_mode 000000018007d1c8     MSVCRT:utility_desktop.obj
 0004:000001d4       $pdata$__scrt_is_managed_app 000000018007d1d4     MSVCRT:utility_desktop.obj
 0004:000001e0       $pdata$__scrt_fastfail     000000018007d1e0     MSVCRT:utility_desktop.obj
 0004:000001ec       $pdata$__scrt_unhandled_exception_filter 000000018007d1ec     MSVCRT:utility_desktop.obj
 0004:000001f8       $pdata$_RTC_Initialize     000000018007d1f8     MSVCRT:_initsect_.obj
 0004:00000204       $pdata$_RTC_Terminate      000000018007d204     MSVCRT:_initsect_.obj
 0004:00000210       $pdata$__isa_available_init 000000018007d210     MSVCRT:_cpu_disp_.obj
 0004:00000258       $pdata$delAMD              000000018007d258     am_demod.obj
 0004:00000264       $pdata$0$delAMD            000000018007d264     am_demod.obj
 0004:00000270       $pdata$1$delAMD            000000018007d270     am_demod.obj
 0004:0000027c       $pdata$newAMD              000000018007d27c     am_demod.obj
 0004:00000288       $pdata$AMDemod             000000018007d288     am_demod.obj
 0004:00000294       $pdata$0$AMDemod           000000018007d294     am_demod.obj
 0004:000002a0       $pdata$1$AMDemod           000000018007d2a0     am_demod.obj
 0004:000002ac       $pdata$pll                 000000018007d2ac     am_demod.obj
 0004:000002b8       $pdata$1$pll               000000018007d2b8     am_demod.obj
 0004:000002c4       $pdata$2$pll               000000018007d2c4     am_demod.obj
 0004:000002d0       $pdata$3$pll               000000018007d2d0     am_demod.obj
 0004:000002dc       $pdata$4$pll               000000018007d2dc     am_demod.obj
 0004:000002e8       $pdata$Cmag                000000018007d2e8     am_demod.obj
 0004:000002f4       $pdata$least_common_mul    000000018007d2f4     banal.obj
 0004:00000300       $pdata$find_rcfile         000000018007d300     banal.obj
 0004:0000030c       $pdata$hinterp_vec         000000018007d30c     banal.obj
 0004:00000318       $pdata$since               000000018007d318     banal.obj
 0004:00000324       $pdata$fmt_tv              000000018007d324     banal.obj
 0004:00000330       $pdata$now_tv              000000018007d330     banal.obj
 0004:0000033c       $pdata$fdsize              000000018007d33c     banal.obj
 0004:00000348       $pdata$filesize            000000018007d348     banal.obj
 0004:00000354       $pdata$efreopen            000000018007d354     banal.obj
 0004:00000360       $pdata$efopen              000000018007d360     banal.obj
 0004:0000036c       $pdata$in_blocks           000000018007d36c     banal.obj
 0004:00000378       $pdata$gettimeofday        000000018007d378     banal.obj
 0004:00000384       $pdata$_snprintf           000000018007d384     banal.obj
 0004:00000390       $pdata$sprintf             000000018007d390     banal.obj
 0004:0000039c       $pdata$_vsprintf_l         000000018007d39c     banal.obj
 0004:000003a8       $pdata$_vsnprintf          000000018007d3a8     banal.obj
 0004:000003b4       $pdata$_vsnprintf_l        000000018007d3b4     banal.obj
 0004:000003c0       $pdata$fprintf             000000018007d3c0     banal.obj
 0004:000003cc       $pdata$_vfprintf_l         000000018007d3cc     banal.obj
 0004:000003d8       $pdata$dump_CX             000000018007d3d8     bufvec.obj
 0004:000003e4       $pdata$dump_IMAG           000000018007d3e4     bufvec.obj
 0004:000003f0       $pdata$dump_REAL           000000018007d3f0     bufvec.obj
 0004:000003fc       $pdata$normalize_vec_COMPLEX 000000018007d3fc     bufvec.obj
 0004:00000408       $pdata$3$normalize_vec_COMPLEX 000000018007d408     bufvec.obj
 0004:00000414       $pdata$5$normalize_vec_COMPLEX 000000018007d414     bufvec.obj
 0004:00000420       $pdata$6$normalize_vec_COMPLEX 000000018007d420     bufvec.obj
 0004:0000042c       $pdata$7$normalize_vec_COMPLEX 000000018007d42c     bufvec.obj
 0004:00000438       $pdata$8$normalize_vec_COMPLEX 000000018007d438     bufvec.obj
 0004:00000444       $pdata$delRLB              000000018007d444     bufvec.obj
 0004:00000450       $pdata$newRLB              000000018007d450     bufvec.obj
 0004:0000045c       $pdata$newvec_COMPLEX_16   000000018007d45c     bufvec.obj
 0004:00000468       $pdata$newvec_COMPLEX      000000018007d468     bufvec.obj
 0004:00000474       $pdata$newvec_IMAG         000000018007d474     bufvec.obj
 0004:00000480       $pdata$newvec_REAL_16      000000018007d480     bufvec.obj
 0004:0000048c       $pdata$newvec_REAL         000000018007d48c     bufvec.obj
 0004:00000498       $pdata$safealloc16         000000018007d498     bufvec.obj
 0004:000004a4       $pdata$Cabs                000000018007d4a4     bufvec.obj
 0004:000004b0       $pdata$safealloc           000000018007d4b0     bufvec.obj
 0004:000004bc       $pdata$delCXB              000000018007d4bc     bufvec.obj
 0004:000004c8       $pdata$newCXB              000000018007d4c8     bufvec.obj
 0004:000004d4       $pdata$correctIQ           000000018007d4d4     correctIQ.obj
 0004:000004e0       $pdata$1$correctIQ         000000018007d4e0     correctIQ.obj
 0004:000004ec       $pdata$8$correctIQ         000000018007d4ec     correctIQ.obj
 0004:000004f8       $pdata$9$correctIQ         000000018007d4f8     correctIQ.obj
 0004:00000504       $pdata$10$correctIQ        000000018007d504     correctIQ.obj
 0004:00000510       $pdata$delCorrectIQ        000000018007d510     correctIQ.obj
 0004:0000051c       $pdata$newCorrectIQ        000000018007d51c     correctIQ.obj
 0004:00000528       $pdata$delCWToneGen        000000018007d528     cwtones.obj
 0004:00000534       $pdata$1$delCWToneGen      000000018007d534     cwtones.obj
 0004:00000540       $pdata$2$delCWToneGen      000000018007d540     cwtones.obj
 0004:0000054c       $pdata$newCWToneGen        000000018007d54c     cwtones.obj
 0004:00000558       $pdata$CWToneOn            000000018007d558     cwtones.obj
 0004:00000564       $pdata$CWTone              000000018007d564     cwtones.obj
 0004:00000570       $pdata$6$CWTone            000000018007d570     cwtones.obj
 0004:0000057c       $pdata$7$CWTone            000000018007d57c     cwtones.obj
 0004:00000588       $pdata$8$CWTone            000000018007d588     cwtones.obj
 0004:00000594       $pdata$9$CWTone            000000018007d594     cwtones.obj
 0004:000005a0       $pdata$CWComplexOSC        000000018007d5a0     cwtones.obj
 0004:000005ac       $pdata$4$CWComplexOSC      000000018007d5ac     cwtones.obj
 0004:000005b8       $pdata$5$CWComplexOSC      000000018007d5b8     cwtones.obj
 0004:000005c4       $pdata$delDCBlocker        000000018007d5c4     dcblock.obj
 0004:000005d0       $pdata$0$delDCBlocker      000000018007d5d0     dcblock.obj
 0004:000005dc       $pdata$1$delDCBlocker      000000018007d5dc     dcblock.obj
 0004:000005e8       $pdata$newDCBlocker        000000018007d5e8     dcblock.obj
 0004:000005f4       $pdata$DCBlock             000000018007d5f4     dcblock.obj
 0004:00000600       $pdata$2$DCBlock           000000018007d600     dcblock.obj
 0004:0000060c       $pdata$3$DCBlock           000000018007d60c     dcblock.obj
 0004:00000618       $pdata$delDttSPAgc         000000018007d618     dttspagc.obj
 0004:00000624       $pdata$DttSPAgc            000000018007d624     dttspagc.obj
 0004:00000630       $pdata$0$DttSPAgc          000000018007d630     dttspagc.obj
 0004:0000063c       $pdata$4$DttSPAgc          000000018007d63c     dttspagc.obj
 0004:00000648       $pdata$5$DttSPAgc          000000018007d648     dttspagc.obj
 0004:00000654       $pdata$6$DttSPAgc          000000018007d654     dttspagc.obj
 0004:00000660       $pdata$newDttSPAgc         000000018007d660     dttspagc.obj
 0004:0000066c       $pdata$4$newDttSPAgc       000000018007d66c     dttspagc.obj
 0004:00000678       $pdata$5$newDttSPAgc       000000018007d678     dttspagc.obj
 0004:00000684       $pdata$6$newDttSPAgc       000000018007d684     dttspagc.obj
 0004:00000690       $pdata$Cmag                000000018007d690     dttspagc.obj
 0004:0000069c       $pdata$newFIR_Bandstop_COMPLEX 000000018007d69c     filter.obj
 0004:000006a8       $pdata$4$newFIR_Bandstop_COMPLEX 000000018007d6a8     filter.obj
 0004:000006b4       $pdata$6$newFIR_Bandstop_COMPLEX 000000018007d6b4     filter.obj
 0004:000006c0       $pdata$9$newFIR_Bandstop_COMPLEX 000000018007d6c0     filter.obj
 0004:000006cc       $pdata$10$newFIR_Bandstop_COMPLEX 000000018007d6cc     filter.obj
 0004:000006d8       $pdata$11$newFIR_Bandstop_COMPLEX 000000018007d6d8     filter.obj
 0004:000006e4       $pdata$12$newFIR_Bandstop_COMPLEX 000000018007d6e4     filter.obj
 0004:000006f0       $pdata$newFIR_Bandstop_REAL 000000018007d6f0     filter.obj
 0004:000006fc       $pdata$5$newFIR_Bandstop_REAL 000000018007d6fc     filter.obj
 0004:00000708       $pdata$7$newFIR_Bandstop_REAL 000000018007d708     filter.obj
 0004:00000714       $pdata$10$newFIR_Bandstop_REAL 000000018007d714     filter.obj
 0004:00000720       $pdata$11$newFIR_Bandstop_REAL 000000018007d720     filter.obj
 0004:0000072c       $pdata$12$newFIR_Bandstop_REAL 000000018007d72c     filter.obj
 0004:00000738       $pdata$13$newFIR_Bandstop_REAL 000000018007d738     filter.obj
 0004:00000744       $pdata$newFIR_Hilbert_COMPLEX 000000018007d744     filter.obj
 0004:00000750       $pdata$5$newFIR_Hilbert_COMPLEX 000000018007d750     filter.obj
 0004:0000075c       $pdata$7$newFIR_Hilbert_COMPLEX 000000018007d75c     filter.obj
 0004:00000768       $pdata$8$newFIR_Hilbert_COMPLEX 000000018007d768     filter.obj
 0004:00000774       $pdata$9$newFIR_Hilbert_COMPLEX 000000018007d774     filter.obj
 0004:00000780       $pdata$newFIR_Hilbert_REAL 000000018007d780     filter.obj
 0004:0000078c       $pdata$6$newFIR_Hilbert_REAL 000000018007d78c     filter.obj
 0004:00000798       $pdata$7$newFIR_Hilbert_REAL 000000018007d798     filter.obj
 0004:000007a4       $pdata$8$newFIR_Hilbert_REAL 000000018007d7a4     filter.obj
 0004:000007b0       $pdata$9$newFIR_Hilbert_REAL 000000018007d7b0     filter.obj
 0004:000007bc       $pdata$newFIR_Highpass_COMPLEX 000000018007d7bc     filter.obj
 0004:000007c8       $pdata$4$newFIR_Highpass_COMPLEX 000000018007d7c8     filter.obj
 0004:000007d4       $pdata$5$newFIR_Highpass_COMPLEX 000000018007d7d4     filter.obj
 0004:000007e0       $pdata$10$newFIR_Highpass_COMPLEX 000000018007d7e0     filter.obj
 0004:000007ec       $pdata$11$newFIR_Highpass_COMPLEX 000000018007d7ec     filter.obj
 0004:000007f8       $pdata$12$newFIR_Highpass_COMPLEX 000000018007d7f8     filter.obj
 0004:00000804       $pdata$newFIR_Highpass_REAL 000000018007d804     filter.obj
 0004:00000810       $pdata$5$newFIR_Highpass_REAL 000000018007d810     filter.obj
 0004:0000081c       $pdata$6$newFIR_Highpass_REAL 000000018007d81c     filter.obj
 0004:00000828       $pdata$10$newFIR_Highpass_REAL 000000018007d828     filter.obj
 0004:00000834       $pdata$11$newFIR_Highpass_REAL 000000018007d834     filter.obj
 0004:00000840       $pdata$12$newFIR_Highpass_REAL 000000018007d840     filter.obj
 0004:0000084c       $pdata$newFIR_Bandpass_COMPLEX 000000018007d84c     filter.obj
 0004:00000858       $pdata$5$newFIR_Bandpass_COMPLEX 000000018007d858     filter.obj
 0004:00000864       $pdata$7$newFIR_Bandpass_COMPLEX 000000018007d864     filter.obj
 0004:00000870       $pdata$8$newFIR_Bandpass_COMPLEX 000000018007d870     filter.obj
 0004:0000087c       $pdata$9$newFIR_Bandpass_COMPLEX 000000018007d87c     filter.obj
 0004:00000888       $pdata$newFIR_Bandpass_REAL 000000018007d888     filter.obj
 0004:00000894       $pdata$6$newFIR_Bandpass_REAL 000000018007d894     filter.obj
 0004:000008a0       $pdata$8$newFIR_Bandpass_REAL 000000018007d8a0     filter.obj
 0004:000008ac       $pdata$9$newFIR_Bandpass_REAL 000000018007d8ac     filter.obj
 0004:000008b8       $pdata$10$newFIR_Bandpass_REAL 000000018007d8b8     filter.obj
 0004:000008c4       $pdata$newFIR_Lowpass_COMPLEX 000000018007d8c4     filter.obj
 0004:000008d0       $pdata$9$newFIR_Lowpass_COMPLEX 000000018007d8d0     filter.obj
 0004:000008dc       $pdata$10$newFIR_Lowpass_COMPLEX 000000018007d8dc     filter.obj
 0004:000008e8       $pdata$newFIR_Lowpass_REAL 000000018007d8e8     filter.obj
 0004:000008f4       $pdata$8$newFIR_Lowpass_REAL 000000018007d8f4     filter.obj
 0004:00000900       $pdata$9$newFIR_Lowpass_REAL 000000018007d900     filter.obj
 0004:0000090c       $pdata$delFIR_COMPLEX      000000018007d90c     filter.obj
 0004:00000918       $pdata$delFIR_REAL         000000018007d918     filter.obj
 0004:00000924       $pdata$newFIR_COMPLEX      000000018007d924     filter.obj
 0004:00000930       $pdata$newFIR_REAL         000000018007d930     filter.obj
 0004:0000093c       $pdata$delFMD              000000018007d93c     fm_demod.obj
 0004:00000948       $pdata$0$delFMD            000000018007d948     fm_demod.obj
 0004:00000954       $pdata$1$delFMD            000000018007d954     fm_demod.obj
 0004:00000960       $pdata$2$delFMD            000000018007d960     fm_demod.obj
 0004:0000096c       $pdata$3$delFMD            000000018007d96c     fm_demod.obj
 0004:00000978       $pdata$FMDreload           000000018007d978     fm_demod.obj
 0004:00000984       $pdata$newFMD              000000018007d984     fm_demod.obj
 0004:00000990       $pdata$FMDemod             000000018007d990     fm_demod.obj
 0004:0000099c       $pdata$0$FMDemod           000000018007d99c     fm_demod.obj
 0004:000009a8       $pdata$7$FMDemod           000000018007d9a8     fm_demod.obj
 0004:000009b4       $pdata$8$FMDemod           000000018007d9b4     fm_demod.obj
 0004:000009c0       $pdata$9$FMDemod           000000018007d9c0     fm_demod.obj
 0004:000009cc       $pdata$Cargument           000000018007d9cc     fm_demod.obj
 0004:000009d8       $pdata$Cmodulus            000000018007d9d8     fm_demod.obj
 0004:000009e4       $pdata$Cdiv                000000018007d9e4     fm_demod.obj
 0004:000009f0       $pdata$ProcessPhaseError   000000018007d9f0     fm_stereo_decoder.obj
 0004:000009fc       $pdata$ProcessPll          000000018007d9fc     fm_stereo_decoder.obj
 0004:00000a08       $pdata$newStereoPll        000000018007da08     fm_stereo_decoder.obj
 0004:00000a14       $pdata$FMStereoDetected    000000018007da14     fm_stereo_decoder.obj
 0004:00000a20       $pdata$delStereDecoder     000000018007da20     fm_stereo_decoder.obj
 0004:00000a2c       $pdata$0$delStereDecoder   000000018007da2c     fm_stereo_decoder.obj
 0004:00000a38       $pdata$1$delStereDecoder   000000018007da38     fm_stereo_decoder.obj
 0004:00000a44       $pdata$ProcessStereo       000000018007da44     fm_stereo_decoder.obj
 0004:00000a50       $pdata$11$ProcessStereo    000000018007da50     fm_stereo_decoder.obj
 0004:00000a5c       $pdata$12$ProcessStereo    000000018007da5c     fm_stereo_decoder.obj
 0004:00000a68       $pdata$newStereoDecoder    000000018007da68     fm_stereo_decoder.obj
 0004:00000a74       $pdata$4$newStereoDecoder  000000018007da74     fm_stereo_decoder.obj
 0004:00000a80       $pdata$7$newStereoDecoder  000000018007da80     fm_stereo_decoder.obj
 0004:00000a8c       $pdata$graphiceq           000000018007da8c     graphiceq.obj
 0004:00000a98       $pdata$0$graphiceq         000000018007da98     graphiceq.obj
 0004:00000aa4       $pdata$1$graphiceq         000000018007daa4     graphiceq.obj
 0004:00000ab0       $pdata$8$graphiceq         000000018007dab0     graphiceq.obj
 0004:00000abc       $pdata$9$graphiceq         000000018007dabc     graphiceq.obj
 0004:00000ac8       $pdata$delEQ               000000018007dac8     graphiceq.obj
 0004:00000ad4       $pdata$0$delEQ             000000018007dad4     graphiceq.obj
 0004:00000ae0       $pdata$1$delEQ             000000018007dae0     graphiceq.obj
 0004:00000aec       $pdata$new_EQ              000000018007daec     graphiceq.obj
 0004:00000af8       $pdata$0$new_EQ            000000018007daf8     graphiceq.obj
 0004:00000b04       $pdata$1$new_EQ            000000018007db04     graphiceq.obj
 0004:00000b10       $pdata$hilsim_transform    000000018007db10     hilbert.obj
 0004:00000b1c       $pdata$2$hilsim_transform  000000018007db1c     hilbert.obj
 0004:00000b28       $pdata$3$hilsim_transform  000000018007db28     hilbert.obj
 0004:00000b34       $pdata$delHilsim           000000018007db34     hilbert.obj
 0004:00000b40       $pdata$0$delHilsim         000000018007db40     hilbert.obj
 0004:00000b4c       $pdata$1$delHilsim         000000018007db4c     hilbert.obj
 0004:00000b58       $pdata$delHilbert          000000018007db58     hilbert.obj
 0004:00000b64       $pdata$0$delHilbert        000000018007db64     hilbert.obj
 0004:00000b70       $pdata$1$delHilbert        000000018007db70     hilbert.obj
 0004:00000b7c       $pdata$newHilbertsim       000000018007db7c     hilbert.obj
 0004:00000b88       $pdata$newHilbert          000000018007db88     hilbert.obj
 0004:00000b94       $pdata$3$newHilbert        000000018007db94     hilbert.obj
 0004:00000ba0       $pdata$4$newHilbert        000000018007dba0     hilbert.obj
 0004:00000bac       $pdata$5$newHilbert        000000018007dbac     hilbert.obj
 0004:00000bb8       $pdata$IirFilterInit       000000018007dbb8     IirFilter.obj
 0004:00000bc4       $pdata$ProcessIirFilter    000000018007dbc4     IirFilter.obj
 0004:00000bd0       $pdata$ISOband_get_high    000000018007dbd0     isoband.obj
 0004:00000bdc       $pdata$ISOband_get_low     000000018007dbdc     isoband.obj
 0004:00000be8       $pdata$ISOband_get_exact   000000018007dbe8     isoband.obj
 0004:00000bf4       $pdata$ISOband_get_nominal 000000018007dbf4     isoband.obj
 0004:00000c00       $pdata$ISOband_get_info    000000018007dc00     isoband.obj
 0004:00000c0c       $pdata$TimerRead           000000018007dc0c     keyd.obj
 0004:00000c18       $pdata$SetKeyerSampleRate  000000018007dc18     keyd.obj
 0004:00000c24       $pdata$DeleteKeyer         000000018007dc24     keyd.obj
 0004:00000c30       $pdata$StopKeyer           000000018007dc30     keyd.obj
 0004:00000c3c       $pdata$StartKeyer          000000018007dc3c     keyd.obj
 0004:00000c48       $pdata$NewCriticalSection  000000018007dc48     keyd.obj
 0004:00000c54       $pdata$NewKeyer            000000018007dc54     keyd.obj
 0004:00000c60       $pdata$SetKeyerRevPdl      000000018007dc60     keyd.obj
 0004:00000c6c       $pdata$SetKeyerDeBounce    000000018007dc6c     keyd.obj
 0004:00000c78       $pdata$SetKeyerMode        000000018007dc78     keyd.obj
 0004:00000c84       $pdata$SetKeyerFall        000000018007dc84     keyd.obj
 0004:00000c90       $pdata$SetKeyerRise        000000018007dc90     keyd.obj
 0004:00000c9c       $pdata$SetKeyerGain        000000018007dc9c     keyd.obj
 0004:00000ca8       $pdata$SetKeyerHarmonicRemove 000000018007dca8     keyd.obj
 0004:00000cb4       $pdata$SetMonitorFreq      000000018007dcb4     keyd.obj
 0004:00000cc0       $pdata$SetKeyerFreq        000000018007dcc0     keyd.obj
 0004:00000ccc       $pdata$SetKeyerIambic      000000018007dccc     keyd.obj
 0004:00000cd8       $pdata$SetKeyerWeight      000000018007dcd8     keyd.obj
 0004:00000ce4       $pdata$SetKeyerSpeed       000000018007dce4     keyd.obj
 0004:00000cf0       $pdata$SetKeyerBug         000000018007dcf0     keyd.obj
 0004:00000cfc       $pdata$key_thread_process  000000018007dcfc     keyd.obj
 0004:00000d08       $pdata$read_key            000000018007dd08     keyd.obj
 0004:00000d14       $pdata$monitor_thread_keyd 000000018007dd14     keyd.obj
 0004:00000d20       $pdata$sound_thread_keyd   000000018007dd20     keyd.obj
 0004:00000d2c       $pdata$send_monitor_silence 000000018007dd2c     keyd.obj
 0004:00000d38       $pdata$0$send_monitor_silence 000000018007dd38     keyd.obj
 0004:00000d44       $pdata$1$send_monitor_silence 000000018007dd44     keyd.obj
 0004:00000d50       $pdata$send_silence        000000018007dd50     keyd.obj
 0004:00000d5c       $pdata$0$send_silence      000000018007dd5c     keyd.obj
 0004:00000d68       $pdata$1$send_silence      000000018007dd68     keyd.obj
 0004:00000d74       $pdata$send_monitor_tone   000000018007dd74     keyd.obj
 0004:00000d80       $pdata$1$send_monitor_tone 000000018007dd80     keyd.obj
 0004:00000d8c       $pdata$2$send_monitor_tone 000000018007dd8c     keyd.obj
 0004:00000d98       $pdata$send_tone           000000018007dd98     keyd.obj
 0004:00000da4       $pdata$0$send_tone         000000018007dda4     keyd.obj
 0004:00000db0       $pdata$1$send_tone         000000018007ddb0     keyd.obj
 0004:00000dbc       $pdata$CWtoneExchange      000000018007ddbc     keyd.obj
 0004:00000dc8       $pdata$0$CWtoneExchange    000000018007ddc8     keyd.obj
 0004:00000dd4       $pdata$1$CWtoneExchange    000000018007ddd4     keyd.obj
 0004:00000de0       $pdata$CWMonitorExchange   000000018007dde0     keyd.obj
 0004:00000dec       $pdata$0$CWMonitorExchange 000000018007ddec     keyd.obj
 0004:00000df8       $pdata$1$CWMonitorExchange 000000018007ddf8     keyd.obj
 0004:00000e04       $pdata$klogic              000000018007de04     keyer.obj
 0004:00000e10       $pdata$newKeyerLogic       000000018007de10     keyer.obj
 0004:00000e1c       $pdata$newKeyerState       000000018007de1c     keyer.obj
 0004:00000e28       $pdata$read_iambic_key     000000018007de28     keyerio.obj
 0004:00000e34       $pdata$0$read_iambic_key   000000018007de34     keyerio.obj
 0004:00000e40       $pdata$1$read_iambic_key   000000018007de40     keyerio.obj
 0004:00000e4c       $pdata$read_straight_key   000000018007de4c     keyerio.obj
 0004:00000e58       $pdata$0$read_straight_key 000000018007de58     keyerio.obj
 0004:00000e64       $pdata$1$read_straight_key 000000018007de64     keyerio.obj
 0004:00000e70       $pdata$blms_adapt          000000018007de70     lmadf.obj
 0004:00000e7c       $pdata$new_blms            000000018007de7c     lmadf.obj
 0004:00000e88       $pdata$del_blms            000000018007de88     lmadf.obj
 0004:00000e94       $pdata$lmsr_adapt_n        000000018007de94     lmadf.obj
 0004:00000ea0       $pdata$5$lmsr_adapt_n      000000018007dea0     lmadf.obj
 0004:00000eac       $pdata$6$lmsr_adapt_n      000000018007deac     lmadf.obj
 0004:00000eb8       $pdata$lmsr_adapt_i        000000018007deb8     lmadf.obj
 0004:00000ec4       $pdata$5$lmsr_adapt_i      000000018007dec4     lmadf.obj
 0004:00000ed0       $pdata$6$lmsr_adapt_i      000000018007ded0     lmadf.obj
 0004:00000edc       $pdata$del_lmsr            000000018007dedc     lmadf.obj
 0004:00000ee8       $pdata$0$del_lmsr          000000018007dee8     lmadf.obj
 0004:00000ef4       $pdata$1$del_lmsr          000000018007def4     lmadf.obj
 0004:00000f00       $pdata$new_lmsr            000000018007df00     lmadf.obj
 0004:00000f0c       $pdata$SDROMnoiseblanker   000000018007df0c     noiseblanker.obj
 0004:00000f18       $pdata$6$SDROMnoiseblanker 000000018007df18     noiseblanker.obj
 0004:00000f24       $pdata$7$SDROMnoiseblanker 000000018007df24     noiseblanker.obj
 0004:00000f30       $pdata$noiseblanker        000000018007df30     noiseblanker.obj
 0004:00000f3c       $pdata$4$noiseblanker      000000018007df3c     noiseblanker.obj
 0004:00000f48       $pdata$5$noiseblanker      000000018007df48     noiseblanker.obj
 0004:00000f54       $pdata$new_noiseblanker    000000018007df54     noiseblanker.obj
 0004:00000f60       $pdata$Cmag                000000018007df60     noiseblanker.obj
 0004:00000f6c       $pdata$RealOSC             000000018007df6c     oscillator.obj
 0004:00000f78       $pdata$3$RealOSC           000000018007df78     oscillator.obj
 0004:00000f84       $pdata$4$RealOSC           000000018007df84     oscillator.obj
 0004:00000f90       $pdata$ComplexOSC          000000018007df90     oscillator.obj
 0004:00000f9c       $pdata$0$ComplexOSC        000000018007df9c     oscillator.obj
 0004:00000fa8       $pdata$1$ComplexOSC        000000018007dfa8     oscillator.obj
 0004:00000fb4       $pdata$newOSC              000000018007dfb4     oscillator.obj
 0004:00000fc0       $pdata$delOSC              000000018007dfc0     oscillator.obj
 0004:00000fcc       $pdata$reset_OvSv          000000018007dfcc     ovsv.obj
 0004:00000fd8       $pdata$filter_CTCSS        000000018007dfd8     ovsv.obj
 0004:00000fe4       $pdata$filter_OvSv         000000018007dfe4     ovsv.obj
 0004:00000ff0       $pdata$delFiltOvSv         000000018007dff0     ovsv.obj
 0004:00000ffc       $pdata$newFiltOvSv         000000018007dffc     ovsv.obj
 0004:00001008       $pdata$3$newFiltOvSv       000000018007e008     ovsv.obj
 0004:00001014       $pdata$4$newFiltOvSv       000000018007e014     ovsv.obj
 0004:00001020       $pdata$PolyPhaseFIR        000000018007e020     resample.obj
 0004:0000102c       $pdata$3$PolyPhaseFIR      000000018007e02c     resample.obj
 0004:00001038       $pdata$4$PolyPhaseFIR      000000018007e038     resample.obj
 0004:00001044       $pdata$delPolyPhaseFIR     000000018007e044     resample.obj
 0004:00001050       $pdata$0$delPolyPhaseFIR   000000018007e050     resample.obj
 0004:0000105c       $pdata$1$delPolyPhaseFIR   000000018007e05c     resample.obj
 0004:00001068       $pdata$newPolyPhaseFIR     000000018007e068     resample.obj
 0004:00001074       $pdata$PolyPhaseFIRF       000000018007e074     resampleF.obj
 0004:00001080       $pdata$3$PolyPhaseFIRF     000000018007e080     resampleF.obj
 0004:0000108c       $pdata$4$PolyPhaseFIRF     000000018007e08c     resampleF.obj
 0004:00001098       $pdata$delPolyPhaseFIRF    000000018007e098     resampleF.obj
 0004:000010a4       $pdata$0$delPolyPhaseFIRF  000000018007e0a4     resampleF.obj
 0004:000010b0       $pdata$1$delPolyPhaseFIRF  000000018007e0b0     resampleF.obj
 0004:000010bc       $pdata$newPolyPhaseFIRF    000000018007e0bc     resampleF.obj
 0004:000010c8       $pdata$ringb_write         000000018007e0c8     ringb.obj
 0004:000010d4       $pdata$ringb_peek          000000018007e0d4     ringb.obj
 0004:000010e0       $pdata$ringb_read          000000018007e0e0     ringb.obj
 0004:000010ec       $pdata$ringb_restart       000000018007e0ec     ringb.obj
 0004:000010f8       $pdata$ringb_float_clear   000000018007e0f8     ringb.obj
 0004:00001104       $pdata$0$ringb_float_clear 000000018007e104     ringb.obj
 0004:00001110       $pdata$1$ringb_float_clear 000000018007e110     ringb.obj
 0004:0000111c       $pdata$ringb_clear         000000018007e11c     ringb.obj
 0004:00001128       $pdata$0$ringb_clear       000000018007e128     ringb.obj
 0004:00001134       $pdata$1$ringb_clear       000000018007e134     ringb.obj
 0004:00001140       $pdata$ringb_free          000000018007e140     ringb.obj
 0004:0000114c       $pdata$ringb_create        000000018007e14c     ringb.obj
 0004:00001158       $pdata$ringb_float_free    000000018007e158     ringb.obj
 0004:00001164       $pdata$ringb_float_create  000000018007e164     ringb.obj
 0004:00001170       $pdata$ringb_float_write   000000018007e170     ringb.obj
 0004:0000117c       $pdata$ringb_float_read    000000018007e17c     ringb.obj
 0004:00001188       $pdata$process_samples     000000018007e188     sdr.obj
 0004:00001194       $pdata$do_tx               000000018007e194     sdr.obj
 0004:000011a0       $pdata$2$do_tx             000000018007e1a0     sdr.obj
 0004:000011ac       $pdata$3$do_tx             000000018007e1ac     sdr.obj
 0004:000011b8       $pdata$do_tx_FM            000000018007e1b8     sdr.obj
 0004:000011c4       $pdata$3$do_tx_FM          000000018007e1c4     sdr.obj
 0004:000011d0       $pdata$4$do_tx_FM          000000018007e1d0     sdr.obj
 0004:000011dc       $pdata$do_tx_AM            000000018007e1dc     sdr.obj
 0004:000011e8       $pdata$do_tx_post          000000018007e1e8     sdr.obj
 0004:000011f4       $pdata$0$do_tx_post        000000018007e1f4     sdr.obj
 0004:00001200       $pdata$1$do_tx_post        000000018007e200     sdr.obj
 0004:0000120c       $pdata$2$do_tx_post        000000018007e20c     sdr.obj
 0004:00001218       $pdata$3$do_tx_post        000000018007e218     sdr.obj
 0004:00001224       $pdata$do_tx_pre           000000018007e224     sdr.obj
 0004:00001230       $pdata$0$do_tx_pre         000000018007e230     sdr.obj
 0004:0000123c       $pdata$1$do_tx_pre         000000018007e23c     sdr.obj
 0004:00001248       $pdata$do_tx_meter         000000018007e248     sdr.obj
 0004:00001254       $pdata$do_rx               000000018007e254     sdr.obj
 0004:00001260       $pdata$do_rx_post          000000018007e260     sdr.obj
 0004:0000126c       $pdata$do_rx_pre           000000018007e26c     sdr.obj
 0004:00001278       $pdata$2$do_rx_pre         000000018007e278     sdr.obj
 0004:00001284       $pdata$5$do_rx_pre         000000018007e284     sdr.obj
 0004:00001290       $pdata$9$do_rx_pre         000000018007e290     sdr.obj
 0004:0000129c       $pdata$10$do_rx_pre        000000018007e29c     sdr.obj
 0004:000012a8       $pdata$11$do_rx_pre        000000018007e2a8     sdr.obj
 0004:000012b4       $pdata$12$do_rx_pre        000000018007e2b4     sdr.obj
 0004:000012c0       $pdata$no_tx_squelch       000000018007e2c0     sdr.obj
 0004:000012cc       $pdata$0$no_tx_squelch     000000018007e2cc     sdr.obj
 0004:000012d8       $pdata$1$no_tx_squelch     000000018007e2d8     sdr.obj
 0004:000012e4       $pdata$no_squelch          000000018007e2e4     sdr.obj
 0004:000012f0       $pdata$0$no_squelch        000000018007e2f0     sdr.obj
 0004:000012fc       $pdata$1$no_squelch        000000018007e2fc     sdr.obj
 0004:00001308       $pdata$do_tx_squelch       000000018007e308     sdr.obj
 0004:00001314       $pdata$do_squelch          000000018007e314     sdr.obj
 0004:00001320       $pdata$0$do_squelch        000000018007e320     sdr.obj
 0004:0000132c       $pdata$1$do_squelch        000000018007e32c     sdr.obj
 0004:00001338       $pdata$should_do_tx_squelch 000000018007e338     sdr.obj
 0004:00001344       $pdata$should_do_rx_squelch 000000018007e344     sdr.obj
 0004:00001350       $pdata$do_tx_spectrum      000000018007e350     sdr.obj
 0004:0000135c       $pdata$do_rx_scope_spectrum 000000018007e35c     sdr.obj
 0004:00001368       $pdata$do_rx_spectrum      000000018007e368     sdr.obj
 0004:00001374       $pdata$do_rx_meter         000000018007e374     sdr.obj
 0004:00001380       $pdata$2$do_rx_meter       000000018007e380     sdr.obj
 0004:0000138c       $pdata$3$do_rx_meter       000000018007e38c     sdr.obj
 0004:00001398       $pdata$CXBpeak             000000018007e398     sdr.obj
 0004:000013a4       $pdata$destroy_workspace   000000018007e3a4     sdr.obj
 0004:000013b0       $pdata$0$destroy_workspace 000000018007e3b0     sdr.obj
 0004:000013bc       $pdata$1$destroy_workspace 000000018007e3bc     sdr.obj
 0004:000013c8       $pdata$setup_workspace     000000018007e3c8     sdr.obj
 0004:000013d4       $pdata$0$setup_workspace   000000018007e3d4     sdr.obj
 0004:000013e0       $pdata$1$setup_workspace   000000018007e3e0     sdr.obj
 0004:000013ec       $pdata$setup_tx            000000018007e3ec     sdr.obj
 0004:000013f8       $pdata$2$setup_tx          000000018007e3f8     sdr.obj
 0004:00001404       $pdata$3$setup_tx          000000018007e404     sdr.obj
 0004:00001410       $pdata$4$setup_tx          000000018007e410     sdr.obj
 0004:0000141c       $pdata$setup_rx            000000018007e41c     sdr.obj
 0004:00001428       $pdata$1$setup_rx          000000018007e428     sdr.obj
 0004:00001434       $pdata$2$setup_rx          000000018007e434     sdr.obj
 0004:00001440       $pdata$setup_all           000000018007e440     sdr.obj
 0004:0000144c       $pdata$reset_spectrum      000000018007e44c     sdr.obj
 0004:00001458       $pdata$Cmag                000000018007e458     sdr.obj
 0004:00001464       $pdata$CaddA               000000018007e464     sdr.obj
 0004:00001470       $pdata$compute_spectrum    000000018007e470     spectrum.obj
 0004:0000147c       $pdata$1$compute_spectrum  000000018007e47c     spectrum.obj
 0004:00001488       $pdata$2$compute_spectrum  000000018007e488     spectrum.obj
 0004:00001494       $pdata$4$compute_spectrum  000000018007e494     spectrum.obj
 0004:000014a0       $pdata$5$compute_spectrum  000000018007e4a0     spectrum.obj
 0004:000014ac       $pdata$compute_complex_spectrum 000000018007e4ac     spectrum.obj
 0004:000014b8       $pdata$snap_scope          000000018007e4b8     spectrum.obj
 0004:000014c4       $pdata$0$snap_scope        000000018007e4c4     spectrum.obj
 0004:000014d0       $pdata$1$snap_scope        000000018007e4d0     spectrum.obj
 0004:000014dc       $pdata$snap_spectrum       000000018007e4dc     spectrum.obj
 0004:000014e8       $pdata$1$snap_spectrum     000000018007e4e8     spectrum.obj
 0004:000014f4       $pdata$2$snap_spectrum     000000018007e4f4     spectrum.obj
 0004:00001500       $pdata$Cmag                000000018007e500     spectrum.obj
 0004:0000150c       $pdata$init_spectrum       000000018007e50c     spectrum.obj
 0004:00001518       $pdata$reinit_spectrum     000000018007e518     spectrum.obj
 0004:00001524       $pdata$finish_spectrum     000000018007e524     spectrum.obj
 0004:00001530       $pdata$0$finish_spectrum   000000018007e530     spectrum.obj
 0004:0000153c       $pdata$1$finish_spectrum   000000018007e53c     spectrum.obj
 0004:00001548       $pdata$Cmag                000000018007e548     speechproc.obj
 0004:00001554       $pdata$delSpeechProc       000000018007e554     speechproc.obj
 0004:00001560       $pdata$0$delSpeechProc     000000018007e560     speechproc.obj
 0004:0000156c       $pdata$1$delSpeechProc     000000018007e56c     speechproc.obj
 0004:00001578       $pdata$SpeechProcessor     000000018007e578     speechproc.obj
 0004:00001584       $pdata$2$SpeechProcessor   000000018007e584     speechproc.obj
 0004:00001590       $pdata$3$SpeechProcessor   000000018007e590     speechproc.obj
 0004:0000159c       $pdata$newSpeechProc       000000018007e59c     speechproc.obj
 0004:000015a8       $pdata$split               000000018007e5a8     splitfields.obj
 0004:000015b4       $pdata$0$split             000000018007e5b4     splitfields.obj
 0004:000015c0       $pdata$1$split             000000018007e5c0     splitfields.obj
 0004:000015cc       $pdata$spliton             000000018007e5cc     splitfields.obj
 0004:000015d8       $pdata$0$spliton           000000018007e5d8     splitfields.obj
 0004:000015e4       $pdata$1$spliton           000000018007e5e4     splitfields.obj
 0004:000015f0       $pdata$splitonto           000000018007e5f0     splitfields.obj
 0004:000015fc       $pdata$0$splitonto         000000018007e5fc     splitfields.obj
 0004:00001608       $pdata$1$splitonto         000000018007e608     splitfields.obj
 0004:00001614       $pdata$newSPLIT            000000018007e614     splitfields.obj
 0004:00001620       $pdata$SpotToneOn          000000018007e620     spottone.obj
 0004:0000162c       $pdata$SpotTone            000000018007e62c     spottone.obj
 0004:00001638       $pdata$3$SpotTone          000000018007e638     spottone.obj
 0004:00001644       $pdata$4$SpotTone          000000018007e644     spottone.obj
 0004:00001650       $pdata$delSpotToneGen      000000018007e650     spottone.obj
 0004:0000165c       $pdata$1$delSpotToneGen    000000018007e65c     spottone.obj
 0004:00001668       $pdata$2$delSpotToneGen    000000018007e668     spottone.obj
 0004:00001674       $pdata$newSpotToneGen      000000018007e674     spottone.obj
 0004:00001680       $pdata$EnableCTCSS         000000018007e680     update.obj
 0004:0000168c       $pdata$SetCTCSSOscAmplitude 000000018007e68c     update.obj
 0004:00001698       $pdata$SetCTCSSOscFreq     000000018007e698     update.obj
 0004:000016a4       $pdata$0$SetCTCSSOscFreq   000000018007e6a4     update.obj
 0004:000016b0       $pdata$1$SetCTCSSOscFreq   000000018007e6b0     update.obj
 0004:000016bc       $pdata$SetDiversityGain    000000018007e6bc     update.obj
 0004:000016c8       $pdata$SetDiversityScalar  000000018007e6c8     update.obj
 0004:000016d4       $pdata$SetDiversity        000000018007e6d4     update.obj
 0004:000016e0       $pdata$SetRXPan            000000018007e6e0     update.obj
 0004:000016ec       $pdata$SetSubRXSt          000000018007e6ec     update.obj
 0004:000016f8       $pdata$0$SetSubRXSt        000000018007e6f8     update.obj
 0004:00001704       $pdata$1$SetSubRXSt        000000018007e704     update.obj
 0004:00001710       $pdata$2$SetSubRXSt        000000018007e710     update.obj
 0004:0000171c       $pdata$4$SetSubRXSt        000000018007e71c     update.obj
 0004:00001728       $pdata$5$SetSubRXSt        000000018007e728     update.obj
 0004:00001734       $pdata$EnableResamplerF    000000018007e734     update.obj
 0004:00001740       $pdata$SetResamplerF       000000018007e740     update.obj
 0004:0000174c       $pdata$DelPolyPhaseFIRF    000000018007e74c     update.obj
 0004:00001758       $pdata$0$DelPolyPhaseFIRF  000000018007e758     update.obj
 0004:00001764       $pdata$1$DelPolyPhaseFIRF  000000018007e764     update.obj
 0004:00001770       $pdata$DoResamplerF        000000018007e770     update.obj
 0004:0000177c       $pdata$NewResamplerF_LimeSDR 000000018007e77c     update.obj
 0004:00001788       $pdata$NewResamplerF       000000018007e788     update.obj
 0004:00001794       $pdata$DelPolyPhaseFIR     000000018007e794     update.obj
 0004:000017a0       $pdata$0$DelPolyPhaseFIR   000000018007e7a0     update.obj
 0004:000017ac       $pdata$1$DelPolyPhaseFIR   000000018007e7ac     update.obj
 0004:000017b8       $pdata$DoResampler         000000018007e7b8     update.obj
 0004:000017c4       $pdata$NewResampler        000000018007e7c4     update.obj
 0004:000017d0       $pdata$SetRingBufferOffset 000000018007e7d0     update.obj
 0004:000017dc       $pdata$Process_Scope       000000018007e7dc     update.obj
 0004:000017e8       $pdata$1$Process_Scope     000000018007e7e8     update.obj
 0004:000017f4       $pdata$2$Process_Scope     000000018007e7f4     update.obj
 0004:00001800       $pdata$3$Process_Scope     000000018007e800     update.obj
 0004:0000180c       $pdata$4$Process_Scope     000000018007e80c     update.obj
 0004:00001818       $pdata$Process_Phase       000000018007e818     update.obj
 0004:00001824       $pdata$2$Process_Phase     000000018007e824     update.obj
 0004:00001830       $pdata$3$Process_Phase     000000018007e830     update.obj
 0004:0000183c       $pdata$Process_Panadapter  000000018007e83c     update.obj
 0004:00001848       $pdata$Process_Spectrum    000000018007e848     update.obj
 0004:00001854       $pdata$Process_ComplexSpectrum 000000018007e854     update.obj
 0004:00001860       $pdata$SetAudioSize        000000018007e860     update.obj
 0004:0000186c       $pdata$SetDSPBuflen        000000018007e86c     update.obj
 0004:00001878       $pdata$FlushAllBufs        000000018007e878     update.obj
 0004:00001884       $pdata$SetTRX              000000018007e884     update.obj
 0004:00001890       $pdata$SetSquelchState     000000018007e890     update.obj
 0004:0000189c       $pdata$SetSquelchVal       000000018007e89c     update.obj
 0004:000018a8       $pdata$SetTXAGCFFCompression 000000018007e8a8     update.obj
 0004:000018b4       $pdata$SetTXAGCFF          000000018007e8b4     update.obj
 0004:000018c0       $pdata$SetGrphRXEQcmd      000000018007e8c0     update.obj
 0004:000018cc       $pdata$SetGrphRXEQ10       000000018007e8cc     update.obj
 0004:000018d8       $pdata$13$SetGrphRXEQ10    000000018007e8d8     update.obj
 0004:000018e4       $pdata$15$SetGrphRXEQ10    000000018007e8e4     update.obj
 0004:000018f0       $pdata$SetGrphRXEQ         000000018007e8f0     update.obj
 0004:000018fc       $pdata$2$SetGrphRXEQ       000000018007e8fc     update.obj
 0004:00001908       $pdata$5$SetGrphRXEQ       000000018007e908     update.obj
 0004:00001914       $pdata$6$SetGrphRXEQ       000000018007e914     update.obj
 0004:00001920       $pdata$7$SetGrphRXEQ       000000018007e920     update.obj
 0004:0000192c       $pdata$10$SetGrphRXEQ      000000018007e92c     update.obj
 0004:00001938       $pdata$11$SetGrphRXEQ      000000018007e938     update.obj
 0004:00001944       $pdata$12$SetGrphRXEQ      000000018007e944     update.obj
 0004:00001950       $pdata$13$SetGrphRXEQ      000000018007e950     update.obj
 0004:0000195c       $pdata$14$SetGrphRXEQ      000000018007e95c     update.obj
 0004:00001968       $pdata$15$SetGrphRXEQ      000000018007e968     update.obj
 0004:00001974       $pdata$16$SetGrphRXEQ      000000018007e974     update.obj
 0004:00001980       $pdata$17$SetGrphRXEQ      000000018007e980     update.obj
 0004:0000198c       $pdata$18$SetGrphRXEQ      000000018007e98c     update.obj
 0004:00001998       $pdata$19$SetGrphRXEQ      000000018007e998     update.obj
 0004:000019a4       $pdata$SetRXFilterMode     000000018007e9a4     update.obj
 0004:000019b0       $pdata$SetGrphTXEQcmd      000000018007e9b0     update.obj
 0004:000019bc       $pdata$SetGrphTXEQ10       000000018007e9bc     update.obj
 0004:000019c8       $pdata$13$SetGrphTXEQ10    000000018007e9c8     update.obj
 0004:000019d4       $pdata$15$SetGrphTXEQ10    000000018007e9d4     update.obj
 0004:000019e0       $pdata$SetGrphTXEQ         000000018007e9e0     update.obj
 0004:000019ec       $pdata$2$SetGrphTXEQ       000000018007e9ec     update.obj
 0004:000019f8       $pdata$5$SetGrphTXEQ       000000018007e9f8     update.obj
 0004:00001a04       $pdata$6$SetGrphTXEQ       000000018007ea04     update.obj
 0004:00001a10       $pdata$7$SetGrphTXEQ       000000018007ea10     update.obj
 0004:00001a1c       $pdata$10$SetGrphTXEQ      000000018007ea1c     update.obj
 0004:00001a28       $pdata$11$SetGrphTXEQ      000000018007ea28     update.obj
 0004:00001a34       $pdata$12$SetGrphTXEQ      000000018007ea34     update.obj
 0004:00001a40       $pdata$13$SetGrphTXEQ      000000018007ea40     update.obj
 0004:00001a4c       $pdata$14$SetGrphTXEQ      000000018007ea4c     update.obj
 0004:00001a58       $pdata$15$SetGrphTXEQ      000000018007ea58     update.obj
 0004:00001a64       $pdata$16$SetGrphTXEQ      000000018007ea64     update.obj
 0004:00001a70       $pdata$17$SetGrphTXEQ      000000018007ea70     update.obj
 0004:00001a7c       $pdata$18$SetGrphTXEQ      000000018007ea7c     update.obj
 0004:00001a88       $pdata$SetSpectrumPolyphase 000000018007ea88     update.obj
 0004:00001a94       $pdata$0$SetSpectrumPolyphase 000000018007ea94     update.obj
 0004:00001aa0       $pdata$1$SetSpectrumPolyphase 000000018007eaa0     update.obj
 0004:00001aac       $pdata$SetWindow           000000018007eaac     update.obj
 0004:00001ab8       $pdata$SetPWSmode          000000018007eab8     update.obj
 0004:00001ac4       $pdata$SetCorrectTXIQW     000000018007eac4     update.obj
 0004:00001ad0       $pdata$SetCorrectTXIQMu    000000018007ead0     update.obj
 0004:00001adc       $pdata$SetCorrectTXIQPhase 000000018007eadc     update.obj
 0004:00001ae8       $pdata$SetCorrectTXIQGain  000000018007eae8     update.obj
 0004:00001af4       $pdata$SetCorrectTXIQ      000000018007eaf4     update.obj
 0004:00001b00       $pdata$SetCorrectRXIQwImag 000000018007eb00     update.obj
 0004:00001b0c       $pdata$SetCorrectRXIQwReal 000000018007eb0c     update.obj
 0004:00001b18       $pdata$GetCorrectRXIQw     000000018007eb18     update.obj
 0004:00001b24       $pdata$SetCorrectRXIQw     000000018007eb24     update.obj
 0004:00001b30       $pdata$SetCorrectRXIQMu    000000018007eb30     update.obj
 0004:00001b3c       $pdata$SetCorrectIQEnable  000000018007eb3c     update.obj
 0004:00001b48       $pdata$SetIQFixed          000000018007eb48     update.obj
 0004:00001b54       $pdata$SetIQSuspended      000000018007eb54     update.obj
 0004:00001b60       $pdata$ResetRingBuffer     000000018007eb60     update.obj
 0004:00001b6c       $pdata$SetCorrectIQPhase   000000018007eb6c     update.obj
 0004:00001b78       $pdata$SetCorrectIQGain    000000018007eb78     update.obj
 0004:00001b84       $pdata$SetCorrectIQ        000000018007eb84     update.obj
 0004:00001b90       $pdata$GetSAMFreq          000000018007eb90     update.obj
 0004:00001b9c       $pdata$SetSAMPLLvals       000000018007eb9c     update.obj
 0004:00001ba8       $pdata$GetSAMPLLvals       000000018007eba8     update.obj
 0004:00001bb4       $pdata$SetRXAGCTop         000000018007ebb4     update.obj
 0004:00001bc0       $pdata$SetFixedAGC         000000018007ebc0     update.obj
 0004:00001bcc       $pdata$SetTXLevelerTop     000000018007ebcc     update.obj
 0004:00001bd8       $pdata$SetTXLevelerHang    000000018007ebd8     update.obj
 0004:00001be4       $pdata$SetTXLevelerDecay   000000018007ebe4     update.obj
 0004:00001bf0       $pdata$SetTXLevelerAttack  000000018007ebf0     update.obj
 0004:00001bfc       $pdata$SetTXLevelerSt      000000018007ebfc     update.obj
 0004:00001c08       $pdata$SetTXALCHang        000000018007ec08     update.obj
 0004:00001c14       $pdata$SetTXALCBot         000000018007ec14     update.obj
 0004:00001c20       $pdata$SetTXALCDecay       000000018007ec20     update.obj
 0004:00001c2c       $pdata$SetTXAMCarrierLevel 000000018007ec2c     update.obj
 0004:00001c38       $pdata$SetTXALCAttack      000000018007ec38     update.obj
 0004:00001c44       $pdata$SetRXAGCHangThreshold 000000018007ec44     update.obj
 0004:00001c50       $pdata$SetRXAGCSlope       000000018007ec50     update.obj
 0004:00001c5c       $pdata$SetRXAGCHang        000000018007ec5c     update.obj
 0004:00001c68       $pdata$SetRXAGCDecay       000000018007ec68     update.obj
 0004:00001c74       $pdata$SetRXAGCAttack      000000018007ec74     update.obj
 0004:00001c80       $pdata$SetRXAGC            000000018007ec80     update.obj
 0004:00001c8c       $pdata$SetBIN              000000018007ec8c     update.obj
 0004:00001c98       $pdata$SetSDROMvals        000000018007ec98     update.obj
 0004:00001ca4       $pdata$SetSDROM            000000018007eca4     update.obj
 0004:00001cb0       $pdata$SetNBvals           000000018007ecb0     update.obj
 0004:00001cbc       $pdata$SetNB               000000018007ecbc     update.obj
 0004:00001cc8       $pdata$SetANFvals          000000018007ecc8     update.obj
 0004:00001cd4       $pdata$SetANF              000000018007ecd4     update.obj
 0004:00001ce0       $pdata$SetTXSquelchAtt     000000018007ece0     update.obj
 0004:00001cec       $pdata$SetTXSquelchVal     000000018007ecec     update.obj
 0004:00001cf8       $pdata$SetTXSquelchSt      000000018007ecf8     update.obj
 0004:00001d04       $pdata$SetTXCompand        000000018007ed04     update.obj
 0004:00001d10       $pdata$SetTXCompandSt      000000018007ed10     update.obj
 0004:00001d1c       $pdata$SetNRvals           000000018007ed1c     update.obj
 0004:00001d28       $pdata$SetNR               000000018007ed28     update.obj
 0004:00001d34       $pdata$SetSampleRate       000000018007ed34     update.obj
 0004:00001d40       $pdata$0$SetSampleRate     000000018007ed40     update.obj
 0004:00001d4c       $pdata$1$SetSampleRate     000000018007ed4c     update.obj
 0004:00001d58       $pdata$SetTXOsc            000000018007ed58     update.obj
 0004:00001d64       $pdata$0$SetTXOsc          000000018007ed64     update.obj
 0004:00001d70       $pdata$1$SetTXOsc          000000018007ed70     update.obj
 0004:00001d7c       $pdata$SetRXOsc            000000018007ed7c     update.obj
 0004:00001d88       $pdata$0$SetRXOsc          000000018007ed88     update.obj
 0004:00001d94       $pdata$1$SetRXOsc          000000018007ed94     update.obj
 0004:00001da0       $pdata$SetOscPhase         000000018007eda0     update.obj
 0004:00001dac       $pdata$SetRXOscPhase       000000018007edac     update.obj
 0004:00001db8       $pdata$SetRXOutputGain     000000018007edb8     update.obj
 0004:00001dc4       $pdata$Release_Update      000000018007edc4     update.obj
 0004:00001dd0       $pdata$SetRXLowPassFilter  000000018007edd0     update.obj
 0004:00001ddc       $pdata$SetRXHighPassFilter 000000018007eddc     update.obj
 0004:00001de8       $pdata$SetRXFilter         000000018007ede8     update.obj
 0004:00001df4       $pdata$FMenableStereo      000000018007edf4     update.obj
 0004:00001e00       $pdata$FMreload            000000018007ee00     update.obj
 0004:00001e0c       $pdata$SetTXFilter         000000018007ee0c     update.obj
 0004:00001e18       $pdata$SetTXFMDeviation    000000018007ee18     update.obj
 0004:00001e24       $pdata$SetTXDCBlock        000000018007ee24     update.obj
 0004:00001e30       $pdata$SetRXDCBlockGain    000000018007ee30     update.obj
 0004:00001e3c       $pdata$SetRXDCBlock        000000018007ee3c     update.obj
 0004:00001e48       $pdata$SetTXMode           000000018007ee48     update.obj
 0004:00001e54       $pdata$SetMode             000000018007ee54     update.obj
 0004:00001e60       $pdata$SetThreadProcessingMode 000000018007ee60     update.obj
 0004:00001e6c       $pdata$SetThreadCom        000000018007ee6c     update.obj
 0004:00001e78       $pdata$SetThreadNo         000000018007ee78     update.obj
 0004:00001e84       $pdata$Destroy_SDR         000000018007ee84     update.obj
 0004:00001e90       $pdata$2$Destroy_SDR       000000018007ee90     update.obj
 0004:00001e9c       $pdata$3$Destroy_SDR       000000018007ee9c     update.obj
 0004:00001ea8       $pdata$gmean               000000018007eea8     update.obj
 0004:00001eb4       $pdata$dB2lin              000000018007eeb4     update.obj
 0004:00001ec0       $pdata$makewindow          000000018007eec0     window.obj
 0004:00001ecc       $pdata$setup_defaults      000000018007eecc     winmain.obj
 0004:00001ed8       $pdata$setup_threading     000000018007eed8     winmain.obj
 0004:00001ee4       $pdata$setup_system_audio  000000018007eee4     winmain.obj
 0004:00001ef0       $pdata$setup_local_audio   000000018007eef0     winmain.obj
 0004:00001efc       $pdata$process_TX_samples_thread 000000018007eefc     winmain.obj
 0004:00001f08       $pdata$0$process_TX_samples_thread 000000018007ef08     winmain.obj
 0004:00001f14       $pdata$1$process_TX_samples_thread 000000018007ef14     winmain.obj
 0004:00001f20       $pdata$process_samples_thread 000000018007ef20     winmain.obj
 0004:00001f2c       $pdata$1$process_samples_thread 000000018007ef2c     winmain.obj
 0004:00001f38       $pdata$2$process_samples_thread 000000018007ef38     winmain.obj
 0004:00001f44       $pdata$Audio_Callback2     000000018007ef44     winmain.obj
 0004:00001f50       $pdata$0$Audio_Callback2   000000018007ef50     winmain.obj
 0004:00001f5c       $pdata$3$Audio_Callback2   000000018007ef5c     winmain.obj
 0004:00001f68       $pdata$4$Audio_Callback2   000000018007ef68     winmain.obj
 0004:00001f74       $pdata$5$Audio_Callback2   000000018007ef74     winmain.obj
 0004:00001f80       $pdata$Audio_Output_Callback 000000018007ef80     winmain.obj
 0004:00001f8c       $pdata$0$Audio_Output_Callback 000000018007ef8c     winmain.obj
 0004:00001f98       $pdata$1$Audio_Output_Callback 000000018007ef98     winmain.obj
 0004:00001fa4       $pdata$Audio_Input_Callback 000000018007efa4     winmain.obj
 0004:00001fb0       $pdata$Audio_Callback      000000018007efb0     winmain.obj
 0004:00001fbc       $pdata$reset_system_audio  000000018007efbc     winmain.obj
 0004:00001fc8       $pdata$3$reset_system_audio 000000018007efc8     winmain.obj
 0004:00001fd4       $pdata$4$reset_system_audio 000000018007efd4     winmain.obj
 0004:00001fe0       $pdata$run_swch            000000018007efe0     winmain.obj
 0004:00001fec       $pdata$2$run_swch          000000018007efec     winmain.obj
 0004:00001ff8       $pdata$3$run_swch          000000018007eff8     winmain.obj
 0004:00002004       $pdata$run_play            000000018007f004     winmain.obj
 0004:00002010       $pdata$run_mute            000000018007f010     winmain.obj
 0004:0000201c       $pdata$puthold             000000018007f01c     winmain.obj
 0004:00002028       $pdata$gethold             000000018007f028     winmain.obj
 0004:00002034       $pdata$reset_for_buflen    000000018007f034     winmain.obj
 0004:00002040       $pdata$2$reset_for_buflen  000000018007f040     winmain.obj
 0004:0000204c       $pdata$3$reset_for_buflen  000000018007f04c     winmain.obj
 0004:00002058       $pdata$setup               000000018007f058     winmain.obj
 0004:00002064       $pdata$6$setup             000000018007f064     winmain.obj
 0004:00002070       $pdata$7$setup             000000018007f070     winmain.obj
 0004:0000207c       $pdata$closeup             000000018007f07c     winmain.obj
 0004:00002088       $pdata$2$closeup           000000018007f088     winmain.obj
 0004:00002094       $pdata$3$closeup           000000018007f094     winmain.obj
 0004:000020a0       $pdata$reset_for_samplerate 000000018007f0a0     winmain.obj
 0004:000020ac       $pdata$Cmag                000000018007f0ac     wscompand.obj
 0004:000020b8       $pdata$WSCReset            000000018007f0b8     wscompand.obj
 0004:000020c4       $pdata$2$WSCReset          000000018007f0c4     wscompand.obj
 0004:000020d0       $pdata$3$WSCReset          000000018007f0d0     wscompand.obj
 0004:000020dc       $pdata$delWSCompander      000000018007f0dc     wscompand.obj
 0004:000020e8       $pdata$0$delWSCompander    000000018007f0e8     wscompand.obj
 0004:000020f4       $pdata$1$delWSCompander    000000018007f0f4     wscompand.obj
 0004:00002100       $pdata$newWSCompander      000000018007f100     wscompand.obj
 0004:0000210c       $pdata$WSCompand           000000018007f10c     wscompand.obj
 0004:00002118       $pdata$4$WSCompand         000000018007f118     wscompand.obj
 0004:00002124       $pdata$5$WSCompand         000000018007f124     wscompand.obj
 0004:00002130       $pdata$6$WSCompand         000000018007f130     wscompand.obj
 0004:0000213c       $pdata$7$WSCompand         000000018007f13c     wscompand.obj
 0004:00002148       $pdata$fast_cos            000000018007f148     fastrig1.obj
 0004:00002154       $pdata$fast_sin            000000018007f154     fastrig1.obj
 0004:00002160       $pdata$InitSPEEDTRIG       000000018007f160     fastrig1.obj
 0004:0000216c       $pdata$4$InitSPEEDTRIG     000000018007f16c     fastrig1.obj
 0004:00002178       $pdata$5$InitSPEEDTRIG     000000018007f178     fastrig1.obj
 0004:00002184       $pdata$fast_atan2          000000018007f184     fastrig1.obj
 0004:00002190       $pdata$1$fast_atan2        000000018007f190     fastrig1.obj
 0004:0000219c       $pdata$2$fast_atan2        000000018007f19c     fastrig1.obj
 0004:000021a8       $pdata$__GSHandlerCheckCommon 000000018007f1a8     MSVCRT:_gshandler_.obj
 0004:000021b4       $pdata$__GSHandlerCheck    000000018007f1b4     MSVCRT:_gshandler_.obj
 0005:00000000       __spec_table               0000000180080000     MSVCRT:_svml_dcos2_sse2_.obj
 0005:00000980       dbA1                       0000000180080980     MSVCRT:_svml_dcos2_sse2_.obj
 0005:00000990       dbA2                       0000000180080990     MSVCRT:_svml_dcos2_sse2_.obj
 0005:000009a0       dbA3                       00000001800809a0     MSVCRT:_svml_dcos2_sse2_.obj
 0005:000009b0       dbA4                       00000001800809b0     MSVCRT:_svml_dcos2_sse2_.obj
 0005:000009c0       dbA5                       00000001800809c0     MSVCRT:_svml_dcos2_sse2_.obj
 0005:000009d0       dbA6                       00000001800809d0     MSVCRT:_svml_dcos2_sse2_.obj
 0005:000009e0       dbA7                       00000001800809e0     MSVCRT:_svml_dcos2_sse2_.obj
 0005:000009f0       dbA8                       00000001800809f0     MSVCRT:_svml_dcos2_sse2_.obj
 0005:00000a00       dbPi4                      0000000180080a00     MSVCRT:_svml_dcos2_sse2_.obj
 0005:00000a10       dbPi3                      0000000180080a10     MSVCRT:_svml_dcos2_sse2_.obj
 0005:00000a20       db05                       0000000180080a20     MSVCRT:_svml_dcos2_sse2_.obj
 0005:00000a30       dbHUGE                     0000000180080a30     MSVCRT:_svml_dcos2_sse2_.obj
 0005:00000a40       iABSMASK                   0000000180080a40     MSVCRT:_svml_dcos2_sse2_.obj
 0005:00000a50       dbPi2                      0000000180080a50     MSVCRT:_svml_dcos2_sse2_.obj
 0005:00000a60       dbInvPi                    0000000180080a60     MSVCRT:_svml_dcos2_sse2_.obj
 0005:00000a70       dbPi1                      0000000180080a70     MSVCRT:_svml_dcos2_sse2_.obj
 0005:00000a80       dbNegRS                    0000000180080a80     MSVCRT:_svml_dcos2_sse2_.obj
 0005:00000a90       dbPio2                     0000000180080a90     MSVCRT:_svml_dcos2_sse2_.obj
 0005:00000aa0       MMISIGNMASK                0000000180080aa0     MSVCRT:_svml_dcos2_sse2_.obj
 0005:00000ab0       PI02C_4                    0000000180080ab0     MSVCRT:_svml_dcos2_sse2_.obj
 0005:00000ac0       PI02C_3                    0000000180080ac0     MSVCRT:_svml_dcos2_sse2_.obj
 0005:00000ad0       PI02C_2                    0000000180080ad0     MSVCRT:_svml_dcos2_sse2_.obj
 0005:00000ae0       PI02C_1                    0000000180080ae0     MSVCRT:_svml_dcos2_sse2_.obj
 0005:00000af0       PI02C_0                    0000000180080af0     MSVCRT:_svml_dcos2_sse2_.obj
 0005:00000b00       RS                         0000000180080b00     MSVCRT:_svml_dcos2_sse2_.obj
 0005:00000b10       MMI_ONE                    0000000180080b10     MSVCRT:_svml_dcos2_sse2_.obj
 0005:00000b20       THE_PI02_INV               0000000180080b20     MSVCRT:_svml_dcos2_sse2_.obj
 0005:00000b30       flAllOnes                  0000000180080b30     MSVCRT:_svml_dcos2_sse2_.obj
 0005:00000b40       TWO_POW_30                 0000000180080b40     MSVCRT:_svml_dcos2_sse2_.obj
 0005:00000c00       __spec_table               0000000180080c00     MSVCRT:_svml_dsin2_sse2_.obj
 0005:00001590       MMDA1                      0000000180081590     MSVCRT:_svml_dsin2_sse2_.obj
 0005:000015a0       MMDA2                      00000001800815a0     MSVCRT:_svml_dsin2_sse2_.obj
 0005:000015b0       MMDA3                      00000001800815b0     MSVCRT:_svml_dsin2_sse2_.obj
 0005:000015c0       MMDA4                      00000001800815c0     MSVCRT:_svml_dsin2_sse2_.obj
 0005:000015d0       MMDA5                      00000001800815d0     MSVCRT:_svml_dsin2_sse2_.obj
 0005:000015e0       MMDA6                      00000001800815e0     MSVCRT:_svml_dsin2_sse2_.obj
 0005:000015f0       MMDA7                      00000001800815f0     MSVCRT:_svml_dsin2_sse2_.obj
 0005:00001600       MMDA8                      0000000180081600     MSVCRT:_svml_dsin2_sse2_.obj
 0005:00001610       MMDPI4                     0000000180081610     MSVCRT:_svml_dsin2_sse2_.obj
 0005:00001620       MMDHUGE                    0000000180081620     MSVCRT:_svml_dsin2_sse2_.obj
 0005:00001630       MMDRSHIFT                  0000000180081630     MSVCRT:_svml_dsin2_sse2_.obj
 0005:00001640       MMDPI3                     0000000180081640     MSVCRT:_svml_dsin2_sse2_.obj
 0005:00001650       MMDPI2                     0000000180081650     MSVCRT:_svml_dsin2_sse2_.obj
 0005:00001660       MMIABSMASK                 0000000180081660     MSVCRT:_svml_dsin2_sse2_.obj
 0005:00001670       MMDINVPI                   0000000180081670     MSVCRT:_svml_dsin2_sse2_.obj
 0005:00001680       MMDPI1                     0000000180081680     MSVCRT:_svml_dsin2_sse2_.obj
 0005:00001690       MMISIGNMASK                0000000180081690     MSVCRT:_svml_dsin2_sse2_.obj
 0005:000016a0       PI02C_4                    00000001800816a0     MSVCRT:_svml_dsin2_sse2_.obj
 0005:000016b0       PI02C_3                    00000001800816b0     MSVCRT:_svml_dsin2_sse2_.obj
 0005:000016c0       PI02C_2                    00000001800816c0     MSVCRT:_svml_dsin2_sse2_.obj
 0005:000016d0       PI02C_1                    00000001800816d0     MSVCRT:_svml_dsin2_sse2_.obj
 0005:000016e0       PI02C_0                    00000001800816e0     MSVCRT:_svml_dsin2_sse2_.obj
 0005:000016f0       RS                         00000001800816f0     MSVCRT:_svml_dsin2_sse2_.obj
 0005:00001700       MSK_LOW_BIT                0000000180081700     MSVCRT:_svml_dsin2_sse2_.obj
 0005:00001710       MMI_ONE                    0000000180081710     MSVCRT:_svml_dsin2_sse2_.obj
 0005:00001720       THE_PI02_INV               0000000180081720     MSVCRT:_svml_dsin2_sse2_.obj
 0005:00001730       TWO_POW_30                 0000000180081730     MSVCRT:_svml_dsin2_sse2_.obj
 0005:00001740       flAllOnes                  0000000180081740     MSVCRT:_svml_dsin2_sse2_.obj
 0006:00000060       $R000000                   0000000180082060     * linker generated manifest res *
